
Source/firmware.elf:     file format elf32-littleriscv


Disassembly of section .init:

00000180 <_start>:
 180:	00000093          	li	ra,0
 184:	00000113          	li	sp,0
 188:	00000193          	li	gp,0
 18c:	00000213          	li	tp,0
 190:	00000293          	li	t0,0
 194:	00000313          	li	t1,0
 198:	00000393          	li	t2,0
 19c:	00000413          	li	s0,0
 1a0:	00000493          	li	s1,0
 1a4:	00000513          	li	a0,0
 1a8:	00000593          	li	a1,0
 1ac:	00000613          	li	a2,0
 1b0:	00000693          	li	a3,0
 1b4:	00000713          	li	a4,0
 1b8:	00000793          	li	a5,0
 1bc:	00000813          	li	a6,0
 1c0:	00000893          	li	a7,0
 1c4:	00000913          	li	s2,0
 1c8:	00000993          	li	s3,0
 1cc:	00000a13          	li	s4,0
 1d0:	00000a93          	li	s5,0
 1d4:	00000b13          	li	s6,0
 1d8:	00000b93          	li	s7,0
 1dc:	00000c13          	li	s8,0
 1e0:	00000c93          	li	s9,0
 1e4:	00000d13          	li	s10,0
 1e8:	00000d93          	li	s11,0
 1ec:	00000e13          	li	t3,0
 1f0:	00000e93          	li	t4,0
 1f4:	00000f13          	li	t5,0
 1f8:	00000f93          	li	t6,0
 1fc:	0000b117          	auipc	sp,0xb
 200:	e0410113          	addi	sp,sp,-508 # b000 <_sp>
 204:	deadc1b7          	lui	gp,0xdeadc
 208:	eef18193          	addi	gp,gp,-273 # deadbeef <end+0xdead08af>
 20c:	00018213          	mv	tp,gp
 210:	3740b0ef          	jal	ra,b584 <main>
 214:	10000537          	lui	a0,0x10000
 218:	04400593          	li	a1,68
 21c:	04f00613          	li	a2,79
 220:	04e00693          	li	a3,78
 224:	04500713          	li	a4,69
 228:	00a00793          	li	a5,10
 22c:	00b52023          	sw	a1,0(a0) # 10000000 <end+0xfff49c0>
 230:	00c52023          	sw	a2,0(a0)
 234:	00d52023          	sw	a3,0(a0)
 238:	00e52023          	sw	a4,0(a0)
 23c:	00f52023          	sw	a5,0(a0)
 240:	20000537          	lui	a0,0x20000
 244:	075bd5b7          	lui	a1,0x75bd
 248:	d1558593          	addi	a1,a1,-747 # 75bcd15 <end+0x75b16d5>
 24c:	00b52023          	sw	a1,0(a0) # 20000000 <end+0x1fff49c0>
 250:	00100073          	ebreak

Disassembly of section .text:

00000258 <__TEST_RV32UI_ISA>:
     258:	fe010113          	addi	sp,sp,-32
     25c:	fe112e23          	sw	ra,-4(sp)
     260:	144000ef          	jal	ra,3a4 <__SAVE_CURRENT_ENV>
     264:	02010113          	addi	sp,sp,32
     268:	3e800093          	li	ra,1000
     26c:	77c0306f          	j	39e8 <lui>

00000270 <lui_ret>:
     270:	3e800093          	li	ra,1000
     274:	2540106f          	j	14c8 <auipc>

00000278 <auipc_ret>:
     278:	3e800093          	li	ra,1000
     27c:	2c90206f          	j	2d44 <j>

00000280 <j_ret>:
     280:	3e800093          	li	ra,1000
     284:	1d50206f          	j	2c58 <jal>

00000288 <jal_ret>:
     288:	3e800093          	li	ra,1000
     28c:	0390206f          	j	2ac4 <jalr>

00000290 <jalr_ret>:
     290:	3e800093          	li	ra,1000
     294:	30c0106f          	j	15a0 <beq>

00000298 <beq_ret>:
     298:	3e800093          	li	ra,1000
     29c:	4d00206f          	j	276c <bne>

000002a0 <bne_ret>:
     2a0:	3e800093          	li	ra,1000
     2a4:	5ed0106f          	j	2090 <blt>

000002a8 <blt_ret>:
     2a8:	3e800093          	li	ra,1000
     2ac:	6480106f          	j	18f4 <bge>

000002b0 <bge_ret>:
     2b0:	3e800093          	li	ra,1000
     2b4:	1300206f          	j	23e4 <bltu>

000002b8 <bltu_ret>:
     2b8:	3e800093          	li	ra,1000
     2bc:	1ed0106f          	j	1ca8 <bgeu>

000002c0 <bgeu_ret>:
     2c0:	3e800093          	li	ra,1000
     2c4:	3510206f          	j	2e14 <lb>

000002c8 <lb_ret>:
     2c8:	3e800093          	li	ra,1000
     2cc:	1080306f          	j	33d4 <lh>

000002d0 <lh_ret>:
     2d0:	3e800093          	li	ra,1000
     2d4:	0090306f          	j	3adc <lw>

000002d8 <lw_ret>:
     2d8:	3e800093          	li	ra,1000
     2dc:	6190206f          	j	30f4 <lbu>

000002e0 <lbu_ret>:
     2e0:	3e800093          	li	ra,1000
     2e4:	3f00306f          	j	36d4 <lhu>

000002e8 <lhu_ret>:
     2e8:	3e800093          	li	ra,1000
     2ec:	2d80406f          	j	45c4 <sb>

000002f0 <sb_ret>:
     2f0:	3e800093          	li	ra,1000
     2f4:	7580406f          	j	4a4c <sh>

000002f8 <sh_ret>:
     2f8:	3e800093          	li	ra,1000
     2fc:	6a40706f          	j	79a0 <sw>

00000300 <sw_ret>:
     300:	3e800093          	li	ra,1000
     304:	1940006f          	j	498 <addi>

00000308 <addi_ret>:
     308:	3e800093          	li	ra,1000
     30c:	5c80506f          	j	58d4 <slti>

00000310 <slti_ret>:
     310:	3e800093          	li	ra,1000
     314:	3a50706f          	j	7eb8 <xori>

00000318 <xori_ret>:
     318:	3e800093          	li	ra,1000
     31c:	2e10306f          	j	3dfc <ori>

00000320 <ori_ret>:
     320:	3e800093          	li	ra,1000
     324:	2050006f          	j	d28 <andi>

00000328 <andi_ret>:
     328:	3e800093          	li	ra,1000
     32c:	4910406f          	j	4fbc <slli>

00000330 <slli_ret>:
     330:	3e800093          	li	ra,1000
     334:	7800606f          	j	6ab4 <srli>

00000338 <srli_ret>:
     338:	3e800093          	li	ra,1000
     33c:	5fd0506f          	j	6138 <srai>

00000340 <srai_ret>:
     340:	3e800093          	li	ra,1000
     344:	4700006f          	j	7b4 <add>

00000348 <add_ret>:
     348:	3e800093          	li	ra,1000
     34c:	1000706f          	j	744c <sub>

00000350 <sub_ret>:
     350:	3e800093          	li	ra,1000
     354:	7810406f          	j	52d4 <sll>

00000358 <sll_ret>:
     358:	3e800093          	li	ra,1000
     35c:	0810506f          	j	5bdc <slt>

00000360 <slt_ret>:
     360:	3e800093          	li	ra,1000
     364:	5cd0706f          	j	8130 <xor>

00000368 <xor_ret>:
     368:	3e800093          	li	ra,1000
     36c:	2910606f          	j	6dfc <srl>

00000370 <srl_ret>:
     370:	3e800093          	li	ra,1000
     374:	1100606f          	j	6484 <sra>

00000378 <sra_ret>:
     378:	3e800093          	li	ra,1000
     37c:	4f10306f          	j	406c <or>

00000380 <or_ret>:
     380:	3e800093          	li	ra,1000
     384:	3f90006f          	j	f7c <and>

00000388 <and_ret>:
     388:	3e800093          	li	ra,1000
     38c:	3cd0406f          	j	4f58 <simple>

00000390 <simple_ret>:
     390:	fe010113          	addi	sp,sp,-32
     394:	08c000ef          	jal	ra,420 <__LOAD_CURRENT_ENV>
     398:	ffc12083          	lw	ra,-4(sp)
     39c:	02010113          	addi	sp,sp,32
     3a0:	00008067          	ret

000003a4 <__SAVE_CURRENT_ENV>:
     3a4:	fe212c23          	sw	sp,-8(sp)
     3a8:	fe312a23          	sw	gp,-12(sp)
     3ac:	fe412823          	sw	tp,-16(sp)
     3b0:	fe512623          	sw	t0,-20(sp)
     3b4:	fe612423          	sw	t1,-24(sp)
     3b8:	fe712223          	sw	t2,-28(sp)
     3bc:	fe812023          	sw	s0,-32(sp)
     3c0:	fc912e23          	sw	s1,-36(sp)
     3c4:	fca12c23          	sw	a0,-40(sp)
     3c8:	fcb12a23          	sw	a1,-44(sp)
     3cc:	fcc12823          	sw	a2,-48(sp)
     3d0:	fcd12623          	sw	a3,-52(sp)
     3d4:	fce12423          	sw	a4,-56(sp)
     3d8:	fcf12223          	sw	a5,-60(sp)
     3dc:	fd012023          	sw	a6,-64(sp)
     3e0:	fb112e23          	sw	a7,-68(sp)
     3e4:	fb212c23          	sw	s2,-72(sp)
     3e8:	fb312a23          	sw	s3,-76(sp)
     3ec:	fb412823          	sw	s4,-80(sp)
     3f0:	fb512623          	sw	s5,-84(sp)
     3f4:	fb612423          	sw	s6,-88(sp)
     3f8:	fb712223          	sw	s7,-92(sp)
     3fc:	fb812023          	sw	s8,-96(sp)
     400:	f9912e23          	sw	s9,-100(sp)
     404:	f9a12c23          	sw	s10,-104(sp)
     408:	f9b12a23          	sw	s11,-108(sp)
     40c:	f9c12823          	sw	t3,-112(sp)
     410:	f9d12623          	sw	t4,-116(sp)
     414:	f9e12423          	sw	t5,-120(sp)
     418:	f9f12223          	sw	t6,-124(sp)
     41c:	00008067          	ret

00000420 <__LOAD_CURRENT_ENV>:
     420:	ff412183          	lw	gp,-12(sp)
     424:	ff012203          	lw	tp,-16(sp)
     428:	fec12283          	lw	t0,-20(sp)
     42c:	fe812303          	lw	t1,-24(sp)
     430:	fe412383          	lw	t2,-28(sp)
     434:	fe012403          	lw	s0,-32(sp)
     438:	fdc12483          	lw	s1,-36(sp)
     43c:	fd812503          	lw	a0,-40(sp)
     440:	fd412583          	lw	a1,-44(sp)
     444:	fd012603          	lw	a2,-48(sp)
     448:	fcc12683          	lw	a3,-52(sp)
     44c:	fc812703          	lw	a4,-56(sp)
     450:	fc412783          	lw	a5,-60(sp)
     454:	fc012803          	lw	a6,-64(sp)
     458:	fbc12883          	lw	a7,-68(sp)
     45c:	fb812903          	lw	s2,-72(sp)
     460:	fb412983          	lw	s3,-76(sp)
     464:	fb012a03          	lw	s4,-80(sp)
     468:	fac12a83          	lw	s5,-84(sp)
     46c:	fa812b03          	lw	s6,-88(sp)
     470:	fa412b83          	lw	s7,-92(sp)
     474:	fa012c03          	lw	s8,-96(sp)
     478:	f9c12c83          	lw	s9,-100(sp)
     47c:	f9812d03          	lw	s10,-104(sp)
     480:	f9412d83          	lw	s11,-108(sp)
     484:	f9012e03          	lw	t3,-112(sp)
     488:	f8c12e83          	lw	t4,-116(sp)
     48c:	f8812f03          	lw	t5,-120(sp)
     490:	f8412f83          	lw	t6,-124(sp)
     494:	00008067          	ret

00000498 <addi>:
     498:	00010f13          	mv	t5,sp
     49c:	fe312e23          	sw	gp,-4(sp)
     4a0:	fe112c23          	sw	ra,-8(sp)
     4a4:	0000b537          	lui	a0,0xb
     4a8:	01c50513          	addi	a0,a0,28 # b01c <addi_data>
     4ac:	10000637          	lui	a2,0x10000

000004b0 <.prname_next>:
     4b0:	00050583          	lb	a1,0(a0)
     4b4:	00058863          	beqz	a1,4c4 <.prname_done>
     4b8:	00b62023          	sw	a1,0(a2) # 10000000 <end+0xfff49c0>
     4bc:	00150513          	addi	a0,a0,1
     4c0:	ff1ff06f          	j	4b0 <.prname_next>

000004c4 <.prname_done>:
     4c4:	02e00593          	li	a1,46
     4c8:	00b62023          	sw	a1,0(a2)
     4cc:	00b62023          	sw	a1,0(a2)

000004d0 <test_2>:
     4d0:	00000093          	li	ra,0
     4d4:	00008193          	mv	gp,ra
     4d8:	00000e93          	li	t4,0
     4dc:	00200e13          	li	t3,2
     4e0:	27d19c63          	bne	gp,t4,758 <fail>

000004e4 <test_3>:
     4e4:	00100093          	li	ra,1
     4e8:	00108193          	addi	gp,ra,1
     4ec:	00200e93          	li	t4,2
     4f0:	00300e13          	li	t3,3
     4f4:	27d19263          	bne	gp,t4,758 <fail>

000004f8 <test_4>:
     4f8:	00300093          	li	ra,3
     4fc:	00708193          	addi	gp,ra,7
     500:	00a00e93          	li	t4,10
     504:	00400e13          	li	t3,4
     508:	25d19863          	bne	gp,t4,758 <fail>

0000050c <test_5>:
     50c:	00000093          	li	ra,0
     510:	80008193          	addi	gp,ra,-2048
     514:	80000e93          	li	t4,-2048
     518:	00500e13          	li	t3,5
     51c:	23d19e63          	bne	gp,t4,758 <fail>

00000520 <test_6>:
     520:	800000b7          	lui	ra,0x80000
     524:	00008193          	mv	gp,ra
     528:	80000eb7          	lui	t4,0x80000
     52c:	00600e13          	li	t3,6
     530:	23d19463          	bne	gp,t4,758 <fail>

00000534 <test_7>:
     534:	800000b7          	lui	ra,0x80000
     538:	80008193          	addi	gp,ra,-2048 # 7ffff800 <end+0x7fff41c0>
     53c:	80000eb7          	lui	t4,0x80000
     540:	800e8e93          	addi	t4,t4,-2048 # 7ffff800 <end+0x7fff41c0>
     544:	00700e13          	li	t3,7
     548:	21d19863          	bne	gp,t4,758 <fail>

0000054c <test_8>:
     54c:	00000093          	li	ra,0
     550:	7ff08193          	addi	gp,ra,2047
     554:	7ff00e93          	li	t4,2047
     558:	00800e13          	li	t3,8
     55c:	1fd19e63          	bne	gp,t4,758 <fail>

00000560 <test_9>:
     560:	800000b7          	lui	ra,0x80000
     564:	fff08093          	addi	ra,ra,-1 # 7fffffff <end+0x7fff49bf>
     568:	00008193          	mv	gp,ra
     56c:	80000eb7          	lui	t4,0x80000
     570:	fffe8e93          	addi	t4,t4,-1 # 7fffffff <end+0x7fff49bf>
     574:	00900e13          	li	t3,9
     578:	1fd19063          	bne	gp,t4,758 <fail>

0000057c <test_10>:
     57c:	800000b7          	lui	ra,0x80000
     580:	fff08093          	addi	ra,ra,-1 # 7fffffff <end+0x7fff49bf>
     584:	7ff08193          	addi	gp,ra,2047
     588:	80000eb7          	lui	t4,0x80000
     58c:	7fee8e93          	addi	t4,t4,2046 # 800007fe <end+0x7fff51be>
     590:	00a00e13          	li	t3,10
     594:	1dd19263          	bne	gp,t4,758 <fail>

00000598 <test_11>:
     598:	800000b7          	lui	ra,0x80000
     59c:	7ff08193          	addi	gp,ra,2047 # 800007ff <end+0x7fff51bf>
     5a0:	80000eb7          	lui	t4,0x80000
     5a4:	7ffe8e93          	addi	t4,t4,2047 # 800007ff <end+0x7fff51bf>
     5a8:	00b00e13          	li	t3,11
     5ac:	1bd19663          	bne	gp,t4,758 <fail>

000005b0 <test_12>:
     5b0:	800000b7          	lui	ra,0x80000
     5b4:	fff08093          	addi	ra,ra,-1 # 7fffffff <end+0x7fff49bf>
     5b8:	80008193          	addi	gp,ra,-2048
     5bc:	7ffffeb7          	lui	t4,0x7ffff
     5c0:	7ffe8e93          	addi	t4,t4,2047 # 7ffff7ff <end+0x7fff41bf>
     5c4:	00c00e13          	li	t3,12
     5c8:	19d19863          	bne	gp,t4,758 <fail>

000005cc <test_13>:
     5cc:	00000093          	li	ra,0
     5d0:	fff08193          	addi	gp,ra,-1
     5d4:	fff00e93          	li	t4,-1
     5d8:	00d00e13          	li	t3,13
     5dc:	17d19e63          	bne	gp,t4,758 <fail>

000005e0 <test_14>:
     5e0:	fff00093          	li	ra,-1
     5e4:	00108193          	addi	gp,ra,1
     5e8:	00000e93          	li	t4,0
     5ec:	00e00e13          	li	t3,14
     5f0:	17d19463          	bne	gp,t4,758 <fail>

000005f4 <test_15>:
     5f4:	fff00093          	li	ra,-1
     5f8:	fff08193          	addi	gp,ra,-1
     5fc:	ffe00e93          	li	t4,-2
     600:	00f00e13          	li	t3,15
     604:	15d19a63          	bne	gp,t4,758 <fail>

00000608 <test_16>:
     608:	800000b7          	lui	ra,0x80000
     60c:	fff08093          	addi	ra,ra,-1 # 7fffffff <end+0x7fff49bf>
     610:	00108193          	addi	gp,ra,1
     614:	80000eb7          	lui	t4,0x80000
     618:	01000e13          	li	t3,16
     61c:	13d19e63          	bne	gp,t4,758 <fail>

00000620 <test_17>:
     620:	00d00093          	li	ra,13
     624:	00b08093          	addi	ra,ra,11
     628:	01800e93          	li	t4,24
     62c:	01100e13          	li	t3,17
     630:	13d09463          	bne	ra,t4,758 <fail>

00000634 <test_18>:
     634:	00000213          	li	tp,0
     638:	00d00093          	li	ra,13
     63c:	00b08193          	addi	gp,ra,11
     640:	00018313          	mv	t1,gp
     644:	00120213          	addi	tp,tp,1 # 1 <__boot_address-0x17f>
     648:	00200293          	li	t0,2
     64c:	fe5216e3          	bne	tp,t0,638 <test_18+0x4>
     650:	01800e93          	li	t4,24
     654:	01200e13          	li	t3,18
     658:	11d31063          	bne	t1,t4,758 <fail>

0000065c <test_19>:
     65c:	00000213          	li	tp,0
     660:	00d00093          	li	ra,13
     664:	00a08193          	addi	gp,ra,10
     668:	00000013          	nop
     66c:	00018313          	mv	t1,gp
     670:	00120213          	addi	tp,tp,1 # 1 <__boot_address-0x17f>
     674:	00200293          	li	t0,2
     678:	fe5214e3          	bne	tp,t0,660 <test_19+0x4>
     67c:	01700e93          	li	t4,23
     680:	01300e13          	li	t3,19
     684:	0dd31a63          	bne	t1,t4,758 <fail>

00000688 <test_20>:
     688:	00000213          	li	tp,0
     68c:	00d00093          	li	ra,13
     690:	00908193          	addi	gp,ra,9
     694:	00000013          	nop
     698:	00000013          	nop
     69c:	00018313          	mv	t1,gp
     6a0:	00120213          	addi	tp,tp,1 # 1 <__boot_address-0x17f>
     6a4:	00200293          	li	t0,2
     6a8:	fe5212e3          	bne	tp,t0,68c <test_20+0x4>
     6ac:	01600e93          	li	t4,22
     6b0:	01400e13          	li	t3,20
     6b4:	0bd31263          	bne	t1,t4,758 <fail>

000006b8 <test_21>:
     6b8:	00000213          	li	tp,0
     6bc:	00d00093          	li	ra,13
     6c0:	00b08193          	addi	gp,ra,11
     6c4:	00120213          	addi	tp,tp,1 # 1 <__boot_address-0x17f>
     6c8:	00200293          	li	t0,2
     6cc:	fe5218e3          	bne	tp,t0,6bc <test_21+0x4>
     6d0:	01800e93          	li	t4,24
     6d4:	01500e13          	li	t3,21
     6d8:	09d19063          	bne	gp,t4,758 <fail>

000006dc <test_22>:
     6dc:	00000213          	li	tp,0
     6e0:	00d00093          	li	ra,13
     6e4:	00000013          	nop
     6e8:	00a08193          	addi	gp,ra,10
     6ec:	00120213          	addi	tp,tp,1 # 1 <__boot_address-0x17f>
     6f0:	00200293          	li	t0,2
     6f4:	fe5216e3          	bne	tp,t0,6e0 <test_22+0x4>
     6f8:	01700e93          	li	t4,23
     6fc:	01600e13          	li	t3,22
     700:	05d19c63          	bne	gp,t4,758 <fail>

00000704 <test_23>:
     704:	00000213          	li	tp,0
     708:	00d00093          	li	ra,13
     70c:	00000013          	nop
     710:	00000013          	nop
     714:	00908193          	addi	gp,ra,9
     718:	00120213          	addi	tp,tp,1 # 1 <__boot_address-0x17f>
     71c:	00200293          	li	t0,2
     720:	fe5214e3          	bne	tp,t0,708 <test_23+0x4>
     724:	01600e93          	li	t4,22
     728:	01700e13          	li	t3,23
     72c:	03d19663          	bne	gp,t4,758 <fail>

00000730 <test_24>:
     730:	02000093          	li	ra,32
     734:	02000e93          	li	t4,32
     738:	01800e13          	li	t3,24
     73c:	01d09e63          	bne	ra,t4,758 <fail>

00000740 <test_25>:
     740:	02100093          	li	ra,33
     744:	03208013          	addi	zero,ra,50
     748:	00000e93          	li	t4,0
     74c:	01900e13          	li	t3,25
     750:	01d01463          	bne	zero,t4,758 <fail>
     754:	03c01a63          	bne	zero,t3,788 <pass>

00000758 <fail>:
     758:	10000537          	lui	a0,0x10000
     75c:	04500593          	li	a1,69
     760:	05200613          	li	a2,82
     764:	04f00693          	li	a3,79
     768:	00a00713          	li	a4,10
     76c:	00b52023          	sw	a1,0(a0) # 10000000 <end+0xfff49c0>
     770:	00c52023          	sw	a2,0(a0)
     774:	00c52023          	sw	a2,0(a0)
     778:	00d52023          	sw	a3,0(a0)
     77c:	00c52023          	sw	a2,0(a0)
     780:	00e52023          	sw	a4,0(a0)
     784:	00100073          	ebreak

00000788 <pass>:
     788:	10000537          	lui	a0,0x10000
     78c:	04f00593          	li	a1,79
     790:	04b00613          	li	a2,75
     794:	00a00693          	li	a3,10
     798:	00b52023          	sw	a1,0(a0) # 10000000 <end+0xfff49c0>
     79c:	00c52023          	sw	a2,0(a0)
     7a0:	00d52023          	sw	a3,0(a0)
     7a4:	000f0113          	mv	sp,t5
     7a8:	ffc12183          	lw	gp,-4(sp)
     7ac:	ff812083          	lw	ra,-8(sp)
     7b0:	b59ff06f          	j	308 <addi_ret>

000007b4 <add>:
     7b4:	00010f13          	mv	t5,sp
     7b8:	fe312e23          	sw	gp,-4(sp)
     7bc:	fe112c23          	sw	ra,-8(sp)
     7c0:	0000b537          	lui	a0,0xb
     7c4:	04050513          	addi	a0,a0,64 # b040 <add_data>
     7c8:	10000637          	lui	a2,0x10000

000007cc <.prname_next>:
     7cc:	00050583          	lb	a1,0(a0)
     7d0:	00058863          	beqz	a1,7e0 <.prname_done>
     7d4:	00b62023          	sw	a1,0(a2) # 10000000 <end+0xfff49c0>
     7d8:	00150513          	addi	a0,a0,1
     7dc:	ff1ff06f          	j	7cc <.prname_next>

000007e0 <.prname_done>:
     7e0:	02e00593          	li	a1,46
     7e4:	00b62023          	sw	a1,0(a2)
     7e8:	00b62023          	sw	a1,0(a2)

000007ec <test_2>:
     7ec:	00000093          	li	ra,0
     7f0:	00000113          	li	sp,0
     7f4:	002081b3          	add	gp,ra,sp
     7f8:	00000e93          	li	t4,0
     7fc:	00200e13          	li	t3,2
     800:	4dd19663          	bne	gp,t4,ccc <fail>

00000804 <test_3>:
     804:	00100093          	li	ra,1
     808:	00100113          	li	sp,1
     80c:	002081b3          	add	gp,ra,sp
     810:	00200e93          	li	t4,2
     814:	00300e13          	li	t3,3
     818:	4bd19a63          	bne	gp,t4,ccc <fail>

0000081c <test_4>:
     81c:	00300093          	li	ra,3
     820:	00700113          	li	sp,7
     824:	002081b3          	add	gp,ra,sp
     828:	00a00e93          	li	t4,10
     82c:	00400e13          	li	t3,4
     830:	49d19e63          	bne	gp,t4,ccc <fail>

00000834 <test_5>:
     834:	00000093          	li	ra,0
     838:	ffff8137          	lui	sp,0xffff8
     83c:	002081b3          	add	gp,ra,sp
     840:	ffff8eb7          	lui	t4,0xffff8
     844:	00500e13          	li	t3,5
     848:	49d19263          	bne	gp,t4,ccc <fail>

0000084c <test_6>:
     84c:	800000b7          	lui	ra,0x80000
     850:	00000113          	li	sp,0
     854:	002081b3          	add	gp,ra,sp
     858:	80000eb7          	lui	t4,0x80000
     85c:	00600e13          	li	t3,6
     860:	47d19663          	bne	gp,t4,ccc <fail>

00000864 <test_7>:
     864:	800000b7          	lui	ra,0x80000
     868:	ffff8137          	lui	sp,0xffff8
     86c:	002081b3          	add	gp,ra,sp
     870:	7fff8eb7          	lui	t4,0x7fff8
     874:	00700e13          	li	t3,7
     878:	45d19a63          	bne	gp,t4,ccc <fail>

0000087c <test_8>:
     87c:	00000093          	li	ra,0
     880:	00008137          	lui	sp,0x8
     884:	fff10113          	addi	sp,sp,-1 # 7fff <test_9+0x1f>
     888:	002081b3          	add	gp,ra,sp
     88c:	00008eb7          	lui	t4,0x8
     890:	fffe8e93          	addi	t4,t4,-1 # 7fff <test_9+0x1f>
     894:	00800e13          	li	t3,8
     898:	43d19a63          	bne	gp,t4,ccc <fail>

0000089c <test_9>:
     89c:	800000b7          	lui	ra,0x80000
     8a0:	fff08093          	addi	ra,ra,-1 # 7fffffff <end+0x7fff49bf>
     8a4:	00000113          	li	sp,0
     8a8:	002081b3          	add	gp,ra,sp
     8ac:	80000eb7          	lui	t4,0x80000
     8b0:	fffe8e93          	addi	t4,t4,-1 # 7fffffff <end+0x7fff49bf>
     8b4:	00900e13          	li	t3,9
     8b8:	41d19a63          	bne	gp,t4,ccc <fail>

000008bc <test_10>:
     8bc:	800000b7          	lui	ra,0x80000
     8c0:	fff08093          	addi	ra,ra,-1 # 7fffffff <end+0x7fff49bf>
     8c4:	00008137          	lui	sp,0x8
     8c8:	fff10113          	addi	sp,sp,-1 # 7fff <test_9+0x1f>
     8cc:	002081b3          	add	gp,ra,sp
     8d0:	80008eb7          	lui	t4,0x80008
     8d4:	ffee8e93          	addi	t4,t4,-2 # 80007ffe <end+0x7fffc9be>
     8d8:	00a00e13          	li	t3,10
     8dc:	3fd19863          	bne	gp,t4,ccc <fail>

000008e0 <test_11>:
     8e0:	800000b7          	lui	ra,0x80000
     8e4:	00008137          	lui	sp,0x8
     8e8:	fff10113          	addi	sp,sp,-1 # 7fff <test_9+0x1f>
     8ec:	002081b3          	add	gp,ra,sp
     8f0:	80008eb7          	lui	t4,0x80008
     8f4:	fffe8e93          	addi	t4,t4,-1 # 80007fff <end+0x7fffc9bf>
     8f8:	00b00e13          	li	t3,11
     8fc:	3dd19863          	bne	gp,t4,ccc <fail>

00000900 <test_12>:
     900:	800000b7          	lui	ra,0x80000
     904:	fff08093          	addi	ra,ra,-1 # 7fffffff <end+0x7fff49bf>
     908:	ffff8137          	lui	sp,0xffff8
     90c:	002081b3          	add	gp,ra,sp
     910:	7fff8eb7          	lui	t4,0x7fff8
     914:	fffe8e93          	addi	t4,t4,-1 # 7fff7fff <end+0x7ffec9bf>
     918:	00c00e13          	li	t3,12
     91c:	3bd19863          	bne	gp,t4,ccc <fail>

00000920 <test_13>:
     920:	00000093          	li	ra,0
     924:	fff00113          	li	sp,-1
     928:	002081b3          	add	gp,ra,sp
     92c:	fff00e93          	li	t4,-1
     930:	00d00e13          	li	t3,13
     934:	39d19c63          	bne	gp,t4,ccc <fail>

00000938 <test_14>:
     938:	fff00093          	li	ra,-1
     93c:	00100113          	li	sp,1
     940:	002081b3          	add	gp,ra,sp
     944:	00000e93          	li	t4,0
     948:	00e00e13          	li	t3,14
     94c:	39d19063          	bne	gp,t4,ccc <fail>

00000950 <test_15>:
     950:	fff00093          	li	ra,-1
     954:	fff00113          	li	sp,-1
     958:	002081b3          	add	gp,ra,sp
     95c:	ffe00e93          	li	t4,-2
     960:	00f00e13          	li	t3,15
     964:	37d19463          	bne	gp,t4,ccc <fail>

00000968 <test_16>:
     968:	00100093          	li	ra,1
     96c:	80000137          	lui	sp,0x80000
     970:	fff10113          	addi	sp,sp,-1 # 7fffffff <end+0x7fff49bf>
     974:	002081b3          	add	gp,ra,sp
     978:	80000eb7          	lui	t4,0x80000
     97c:	01000e13          	li	t3,16
     980:	35d19663          	bne	gp,t4,ccc <fail>

00000984 <test_17>:
     984:	00d00093          	li	ra,13
     988:	00b00113          	li	sp,11
     98c:	002080b3          	add	ra,ra,sp
     990:	01800e93          	li	t4,24
     994:	01100e13          	li	t3,17
     998:	33d09a63          	bne	ra,t4,ccc <fail>

0000099c <test_18>:
     99c:	00e00093          	li	ra,14
     9a0:	00b00113          	li	sp,11
     9a4:	00208133          	add	sp,ra,sp
     9a8:	01900e93          	li	t4,25
     9ac:	01200e13          	li	t3,18
     9b0:	31d11e63          	bne	sp,t4,ccc <fail>

000009b4 <test_19>:
     9b4:	00d00093          	li	ra,13
     9b8:	001080b3          	add	ra,ra,ra
     9bc:	01a00e93          	li	t4,26
     9c0:	01300e13          	li	t3,19
     9c4:	31d09463          	bne	ra,t4,ccc <fail>

000009c8 <test_20>:
     9c8:	00000213          	li	tp,0
     9cc:	00d00093          	li	ra,13
     9d0:	00b00113          	li	sp,11
     9d4:	002081b3          	add	gp,ra,sp
     9d8:	00018313          	mv	t1,gp
     9dc:	00120213          	addi	tp,tp,1 # 1 <__boot_address-0x17f>
     9e0:	00200293          	li	t0,2
     9e4:	fe5214e3          	bne	tp,t0,9cc <test_20+0x4>
     9e8:	01800e93          	li	t4,24
     9ec:	01400e13          	li	t3,20
     9f0:	2dd31e63          	bne	t1,t4,ccc <fail>

000009f4 <test_21>:
     9f4:	00000213          	li	tp,0
     9f8:	00e00093          	li	ra,14
     9fc:	00b00113          	li	sp,11
     a00:	002081b3          	add	gp,ra,sp
     a04:	00000013          	nop
     a08:	00018313          	mv	t1,gp
     a0c:	00120213          	addi	tp,tp,1 # 1 <__boot_address-0x17f>
     a10:	00200293          	li	t0,2
     a14:	fe5212e3          	bne	tp,t0,9f8 <test_21+0x4>
     a18:	01900e93          	li	t4,25
     a1c:	01500e13          	li	t3,21
     a20:	2bd31663          	bne	t1,t4,ccc <fail>

00000a24 <test_22>:
     a24:	00000213          	li	tp,0
     a28:	00f00093          	li	ra,15
     a2c:	00b00113          	li	sp,11
     a30:	002081b3          	add	gp,ra,sp
     a34:	00000013          	nop
     a38:	00000013          	nop
     a3c:	00018313          	mv	t1,gp
     a40:	00120213          	addi	tp,tp,1 # 1 <__boot_address-0x17f>
     a44:	00200293          	li	t0,2
     a48:	fe5210e3          	bne	tp,t0,a28 <test_22+0x4>
     a4c:	01a00e93          	li	t4,26
     a50:	01600e13          	li	t3,22
     a54:	27d31c63          	bne	t1,t4,ccc <fail>

00000a58 <test_23>:
     a58:	00000213          	li	tp,0
     a5c:	00d00093          	li	ra,13
     a60:	00b00113          	li	sp,11
     a64:	002081b3          	add	gp,ra,sp
     a68:	00120213          	addi	tp,tp,1 # 1 <__boot_address-0x17f>
     a6c:	00200293          	li	t0,2
     a70:	fe5216e3          	bne	tp,t0,a5c <test_23+0x4>
     a74:	01800e93          	li	t4,24
     a78:	01700e13          	li	t3,23
     a7c:	25d19863          	bne	gp,t4,ccc <fail>

00000a80 <test_24>:
     a80:	00000213          	li	tp,0
     a84:	00e00093          	li	ra,14
     a88:	00b00113          	li	sp,11
     a8c:	00000013          	nop
     a90:	002081b3          	add	gp,ra,sp
     a94:	00120213          	addi	tp,tp,1 # 1 <__boot_address-0x17f>
     a98:	00200293          	li	t0,2
     a9c:	fe5214e3          	bne	tp,t0,a84 <test_24+0x4>
     aa0:	01900e93          	li	t4,25
     aa4:	01800e13          	li	t3,24
     aa8:	23d19263          	bne	gp,t4,ccc <fail>

00000aac <test_25>:
     aac:	00000213          	li	tp,0
     ab0:	00f00093          	li	ra,15
     ab4:	00b00113          	li	sp,11
     ab8:	00000013          	nop
     abc:	00000013          	nop
     ac0:	002081b3          	add	gp,ra,sp
     ac4:	00120213          	addi	tp,tp,1 # 1 <__boot_address-0x17f>
     ac8:	00200293          	li	t0,2
     acc:	fe5212e3          	bne	tp,t0,ab0 <test_25+0x4>
     ad0:	01a00e93          	li	t4,26
     ad4:	01900e13          	li	t3,25
     ad8:	1fd19a63          	bne	gp,t4,ccc <fail>

00000adc <test_26>:
     adc:	00000213          	li	tp,0
     ae0:	00d00093          	li	ra,13
     ae4:	00000013          	nop
     ae8:	00b00113          	li	sp,11
     aec:	002081b3          	add	gp,ra,sp
     af0:	00120213          	addi	tp,tp,1 # 1 <__boot_address-0x17f>
     af4:	00200293          	li	t0,2
     af8:	fe5214e3          	bne	tp,t0,ae0 <test_26+0x4>
     afc:	01800e93          	li	t4,24
     b00:	01a00e13          	li	t3,26
     b04:	1dd19463          	bne	gp,t4,ccc <fail>

00000b08 <test_27>:
     b08:	00000213          	li	tp,0
     b0c:	00e00093          	li	ra,14
     b10:	00000013          	nop
     b14:	00b00113          	li	sp,11
     b18:	00000013          	nop
     b1c:	002081b3          	add	gp,ra,sp
     b20:	00120213          	addi	tp,tp,1 # 1 <__boot_address-0x17f>
     b24:	00200293          	li	t0,2
     b28:	fe5212e3          	bne	tp,t0,b0c <test_27+0x4>
     b2c:	01900e93          	li	t4,25
     b30:	01b00e13          	li	t3,27
     b34:	19d19c63          	bne	gp,t4,ccc <fail>

00000b38 <test_28>:
     b38:	00000213          	li	tp,0
     b3c:	00f00093          	li	ra,15
     b40:	00000013          	nop
     b44:	00000013          	nop
     b48:	00b00113          	li	sp,11
     b4c:	002081b3          	add	gp,ra,sp
     b50:	00120213          	addi	tp,tp,1 # 1 <__boot_address-0x17f>
     b54:	00200293          	li	t0,2
     b58:	fe5212e3          	bne	tp,t0,b3c <test_28+0x4>
     b5c:	01a00e93          	li	t4,26
     b60:	01c00e13          	li	t3,28
     b64:	17d19463          	bne	gp,t4,ccc <fail>

00000b68 <test_29>:
     b68:	00000213          	li	tp,0
     b6c:	00b00113          	li	sp,11
     b70:	00d00093          	li	ra,13
     b74:	002081b3          	add	gp,ra,sp
     b78:	00120213          	addi	tp,tp,1 # 1 <__boot_address-0x17f>
     b7c:	00200293          	li	t0,2
     b80:	fe5216e3          	bne	tp,t0,b6c <test_29+0x4>
     b84:	01800e93          	li	t4,24
     b88:	01d00e13          	li	t3,29
     b8c:	15d19063          	bne	gp,t4,ccc <fail>

00000b90 <test_30>:
     b90:	00000213          	li	tp,0
     b94:	00b00113          	li	sp,11
     b98:	00e00093          	li	ra,14
     b9c:	00000013          	nop
     ba0:	002081b3          	add	gp,ra,sp
     ba4:	00120213          	addi	tp,tp,1 # 1 <__boot_address-0x17f>
     ba8:	00200293          	li	t0,2
     bac:	fe5214e3          	bne	tp,t0,b94 <test_30+0x4>
     bb0:	01900e93          	li	t4,25
     bb4:	01e00e13          	li	t3,30
     bb8:	11d19a63          	bne	gp,t4,ccc <fail>

00000bbc <test_31>:
     bbc:	00000213          	li	tp,0
     bc0:	00b00113          	li	sp,11
     bc4:	00f00093          	li	ra,15
     bc8:	00000013          	nop
     bcc:	00000013          	nop
     bd0:	002081b3          	add	gp,ra,sp
     bd4:	00120213          	addi	tp,tp,1 # 1 <__boot_address-0x17f>
     bd8:	00200293          	li	t0,2
     bdc:	fe5212e3          	bne	tp,t0,bc0 <test_31+0x4>
     be0:	01a00e93          	li	t4,26
     be4:	01f00e13          	li	t3,31
     be8:	0fd19263          	bne	gp,t4,ccc <fail>

00000bec <test_32>:
     bec:	00000213          	li	tp,0
     bf0:	00b00113          	li	sp,11
     bf4:	00000013          	nop
     bf8:	00d00093          	li	ra,13
     bfc:	002081b3          	add	gp,ra,sp
     c00:	00120213          	addi	tp,tp,1 # 1 <__boot_address-0x17f>
     c04:	00200293          	li	t0,2
     c08:	fe5214e3          	bne	tp,t0,bf0 <test_32+0x4>
     c0c:	01800e93          	li	t4,24
     c10:	02000e13          	li	t3,32
     c14:	0bd19c63          	bne	gp,t4,ccc <fail>

00000c18 <test_33>:
     c18:	00000213          	li	tp,0
     c1c:	00b00113          	li	sp,11
     c20:	00000013          	nop
     c24:	00e00093          	li	ra,14
     c28:	00000013          	nop
     c2c:	002081b3          	add	gp,ra,sp
     c30:	00120213          	addi	tp,tp,1 # 1 <__boot_address-0x17f>
     c34:	00200293          	li	t0,2
     c38:	fe5212e3          	bne	tp,t0,c1c <test_33+0x4>
     c3c:	01900e93          	li	t4,25
     c40:	02100e13          	li	t3,33
     c44:	09d19463          	bne	gp,t4,ccc <fail>

00000c48 <test_34>:
     c48:	00000213          	li	tp,0
     c4c:	00b00113          	li	sp,11
     c50:	00000013          	nop
     c54:	00000013          	nop
     c58:	00f00093          	li	ra,15
     c5c:	002081b3          	add	gp,ra,sp
     c60:	00120213          	addi	tp,tp,1 # 1 <__boot_address-0x17f>
     c64:	00200293          	li	t0,2
     c68:	fe5212e3          	bne	tp,t0,c4c <test_34+0x4>
     c6c:	01a00e93          	li	t4,26
     c70:	02200e13          	li	t3,34
     c74:	05d19c63          	bne	gp,t4,ccc <fail>

00000c78 <test_35>:
     c78:	00f00093          	li	ra,15
     c7c:	00100133          	add	sp,zero,ra
     c80:	00f00e93          	li	t4,15
     c84:	02300e13          	li	t3,35
     c88:	05d11263          	bne	sp,t4,ccc <fail>

00000c8c <test_36>:
     c8c:	02000093          	li	ra,32
     c90:	00008133          	add	sp,ra,zero
     c94:	02000e93          	li	t4,32
     c98:	02400e13          	li	t3,36
     c9c:	03d11863          	bne	sp,t4,ccc <fail>

00000ca0 <test_37>:
     ca0:	000000b3          	add	ra,zero,zero
     ca4:	00000e93          	li	t4,0
     ca8:	02500e13          	li	t3,37
     cac:	03d09063          	bne	ra,t4,ccc <fail>

00000cb0 <test_38>:
     cb0:	01000093          	li	ra,16
     cb4:	01e00113          	li	sp,30
     cb8:	00208033          	add	zero,ra,sp
     cbc:	00000e93          	li	t4,0
     cc0:	02600e13          	li	t3,38
     cc4:	01d01463          	bne	zero,t4,ccc <fail>
     cc8:	03c01a63          	bne	zero,t3,cfc <pass>

00000ccc <fail>:
     ccc:	10000537          	lui	a0,0x10000
     cd0:	04500593          	li	a1,69
     cd4:	05200613          	li	a2,82
     cd8:	04f00693          	li	a3,79
     cdc:	00a00713          	li	a4,10
     ce0:	00b52023          	sw	a1,0(a0) # 10000000 <end+0xfff49c0>
     ce4:	00c52023          	sw	a2,0(a0)
     ce8:	00c52023          	sw	a2,0(a0)
     cec:	00d52023          	sw	a3,0(a0)
     cf0:	00c52023          	sw	a2,0(a0)
     cf4:	00e52023          	sw	a4,0(a0)
     cf8:	00100073          	ebreak

00000cfc <pass>:
     cfc:	10000537          	lui	a0,0x10000
     d00:	04f00593          	li	a1,79
     d04:	04b00613          	li	a2,75
     d08:	00a00693          	li	a3,10
     d0c:	00b52023          	sw	a1,0(a0) # 10000000 <end+0xfff49c0>
     d10:	00c52023          	sw	a2,0(a0)
     d14:	00d52023          	sw	a3,0(a0)
     d18:	000f0113          	mv	sp,t5
     d1c:	ffc12183          	lw	gp,-4(sp)
     d20:	ff812083          	lw	ra,-8(sp)
     d24:	e24ff06f          	j	348 <add_ret>

00000d28 <andi>:
     d28:	00010f13          	mv	t5,sp
     d2c:	fe312e23          	sw	gp,-4(sp)
     d30:	fe112c23          	sw	ra,-8(sp)
     d34:	0000b537          	lui	a0,0xb
     d38:	06050513          	addi	a0,a0,96 # b060 <andi_data>
     d3c:	10000637          	lui	a2,0x10000

00000d40 <.prname_next>:
     d40:	00050583          	lb	a1,0(a0)
     d44:	00058863          	beqz	a1,d54 <.prname_done>
     d48:	00b62023          	sw	a1,0(a2) # 10000000 <end+0xfff49c0>
     d4c:	00150513          	addi	a0,a0,1
     d50:	ff1ff06f          	j	d40 <.prname_next>

00000d54 <.prname_done>:
     d54:	02e00593          	li	a1,46
     d58:	00b62023          	sw	a1,0(a2)
     d5c:	00b62023          	sw	a1,0(a2)

00000d60 <test_2>:
     d60:	ff0100b7          	lui	ra,0xff010
     d64:	f0008093          	addi	ra,ra,-256 # ff00ff00 <end+0xff0048c0>
     d68:	f0f0f193          	andi	gp,ra,-241
     d6c:	ff010eb7          	lui	t4,0xff010
     d70:	f00e8e93          	addi	t4,t4,-256 # ff00ff00 <end+0xff0048c0>
     d74:	00200e13          	li	t3,2
     d78:	1bd19463          	bne	gp,t4,f20 <fail>

00000d7c <test_3>:
     d7c:	0ff010b7          	lui	ra,0xff01
     d80:	ff008093          	addi	ra,ra,-16 # ff00ff0 <end+0xfef59b0>
     d84:	0f00f193          	andi	gp,ra,240
     d88:	0f000e93          	li	t4,240
     d8c:	00300e13          	li	t3,3
     d90:	19d19863          	bne	gp,t4,f20 <fail>

00000d94 <test_4>:
     d94:	00ff00b7          	lui	ra,0xff0
     d98:	0ff08093          	addi	ra,ra,255 # ff00ff <end+0xfe4abf>
     d9c:	70f0f193          	andi	gp,ra,1807
     da0:	00f00e93          	li	t4,15
     da4:	00400e13          	li	t3,4
     da8:	17d19c63          	bne	gp,t4,f20 <fail>

00000dac <test_5>:
     dac:	f00ff0b7          	lui	ra,0xf00ff
     db0:	00f08093          	addi	ra,ra,15 # f00ff00f <end+0xf00f39cf>
     db4:	0f00f193          	andi	gp,ra,240
     db8:	00000e93          	li	t4,0
     dbc:	00500e13          	li	t3,5
     dc0:	17d19063          	bne	gp,t4,f20 <fail>

00000dc4 <test_6>:
     dc4:	ff0100b7          	lui	ra,0xff010
     dc8:	f0008093          	addi	ra,ra,-256 # ff00ff00 <end+0xff0048c0>
     dcc:	0f00f093          	andi	ra,ra,240
     dd0:	00000e93          	li	t4,0
     dd4:	00600e13          	li	t3,6
     dd8:	15d09463          	bne	ra,t4,f20 <fail>

00000ddc <test_7>:
     ddc:	00000213          	li	tp,0
     de0:	0ff010b7          	lui	ra,0xff01
     de4:	ff008093          	addi	ra,ra,-16 # ff00ff0 <end+0xfef59b0>
     de8:	70f0f193          	andi	gp,ra,1807
     dec:	00018313          	mv	t1,gp
     df0:	00120213          	addi	tp,tp,1 # 1 <__boot_address-0x17f>
     df4:	00200293          	li	t0,2
     df8:	fe5214e3          	bne	tp,t0,de0 <test_7+0x4>
     dfc:	70000e93          	li	t4,1792
     e00:	00700e13          	li	t3,7
     e04:	11d31e63          	bne	t1,t4,f20 <fail>

00000e08 <test_8>:
     e08:	00000213          	li	tp,0
     e0c:	00ff00b7          	lui	ra,0xff0
     e10:	0ff08093          	addi	ra,ra,255 # ff00ff <end+0xfe4abf>
     e14:	0f00f193          	andi	gp,ra,240
     e18:	00000013          	nop
     e1c:	00018313          	mv	t1,gp
     e20:	00120213          	addi	tp,tp,1 # 1 <__boot_address-0x17f>
     e24:	00200293          	li	t0,2
     e28:	fe5212e3          	bne	tp,t0,e0c <test_8+0x4>
     e2c:	0f000e93          	li	t4,240
     e30:	00800e13          	li	t3,8
     e34:	0fd31663          	bne	t1,t4,f20 <fail>

00000e38 <test_9>:
     e38:	00000213          	li	tp,0
     e3c:	f00ff0b7          	lui	ra,0xf00ff
     e40:	00f08093          	addi	ra,ra,15 # f00ff00f <end+0xf00f39cf>
     e44:	f0f0f193          	andi	gp,ra,-241
     e48:	00000013          	nop
     e4c:	00000013          	nop
     e50:	00018313          	mv	t1,gp
     e54:	00120213          	addi	tp,tp,1 # 1 <__boot_address-0x17f>
     e58:	00200293          	li	t0,2
     e5c:	fe5210e3          	bne	tp,t0,e3c <test_9+0x4>
     e60:	f00ffeb7          	lui	t4,0xf00ff
     e64:	00fe8e93          	addi	t4,t4,15 # f00ff00f <end+0xf00f39cf>
     e68:	00900e13          	li	t3,9
     e6c:	0bd31a63          	bne	t1,t4,f20 <fail>

00000e70 <test_10>:
     e70:	00000213          	li	tp,0
     e74:	0ff010b7          	lui	ra,0xff01
     e78:	ff008093          	addi	ra,ra,-16 # ff00ff0 <end+0xfef59b0>
     e7c:	70f0f193          	andi	gp,ra,1807
     e80:	00120213          	addi	tp,tp,1 # 1 <__boot_address-0x17f>
     e84:	00200293          	li	t0,2
     e88:	fe5216e3          	bne	tp,t0,e74 <test_10+0x4>
     e8c:	70000e93          	li	t4,1792
     e90:	00a00e13          	li	t3,10
     e94:	09d19663          	bne	gp,t4,f20 <fail>

00000e98 <test_11>:
     e98:	00000213          	li	tp,0
     e9c:	00ff00b7          	lui	ra,0xff0
     ea0:	0ff08093          	addi	ra,ra,255 # ff00ff <end+0xfe4abf>
     ea4:	00000013          	nop
     ea8:	0f00f193          	andi	gp,ra,240
     eac:	00120213          	addi	tp,tp,1 # 1 <__boot_address-0x17f>
     eb0:	00200293          	li	t0,2
     eb4:	fe5214e3          	bne	tp,t0,e9c <test_11+0x4>
     eb8:	0f000e93          	li	t4,240
     ebc:	00b00e13          	li	t3,11
     ec0:	07d19063          	bne	gp,t4,f20 <fail>

00000ec4 <test_12>:
     ec4:	00000213          	li	tp,0
     ec8:	f00ff0b7          	lui	ra,0xf00ff
     ecc:	00f08093          	addi	ra,ra,15 # f00ff00f <end+0xf00f39cf>
     ed0:	00000013          	nop
     ed4:	00000013          	nop
     ed8:	70f0f193          	andi	gp,ra,1807
     edc:	00120213          	addi	tp,tp,1 # 1 <__boot_address-0x17f>
     ee0:	00200293          	li	t0,2
     ee4:	fe5212e3          	bne	tp,t0,ec8 <test_12+0x4>
     ee8:	00f00e93          	li	t4,15
     eec:	00c00e13          	li	t3,12
     ef0:	03d19863          	bne	gp,t4,f20 <fail>

00000ef4 <test_13>:
     ef4:	0f007093          	andi	ra,zero,240
     ef8:	00000e93          	li	t4,0
     efc:	00d00e13          	li	t3,13
     f00:	03d09063          	bne	ra,t4,f20 <fail>

00000f04 <test_14>:
     f04:	00ff00b7          	lui	ra,0xff0
     f08:	0ff08093          	addi	ra,ra,255 # ff00ff <end+0xfe4abf>
     f0c:	70f0f013          	andi	zero,ra,1807
     f10:	00000e93          	li	t4,0
     f14:	00e00e13          	li	t3,14
     f18:	01d01463          	bne	zero,t4,f20 <fail>
     f1c:	03c01a63          	bne	zero,t3,f50 <pass>

00000f20 <fail>:
     f20:	10000537          	lui	a0,0x10000
     f24:	04500593          	li	a1,69
     f28:	05200613          	li	a2,82
     f2c:	04f00693          	li	a3,79
     f30:	00a00713          	li	a4,10
     f34:	00b52023          	sw	a1,0(a0) # 10000000 <end+0xfff49c0>
     f38:	00c52023          	sw	a2,0(a0)
     f3c:	00c52023          	sw	a2,0(a0)
     f40:	00d52023          	sw	a3,0(a0)
     f44:	00c52023          	sw	a2,0(a0)
     f48:	00e52023          	sw	a4,0(a0)
     f4c:	00100073          	ebreak

00000f50 <pass>:
     f50:	10000537          	lui	a0,0x10000
     f54:	04f00593          	li	a1,79
     f58:	04b00613          	li	a2,75
     f5c:	00a00693          	li	a3,10
     f60:	00b52023          	sw	a1,0(a0) # 10000000 <end+0xfff49c0>
     f64:	00c52023          	sw	a2,0(a0)
     f68:	00d52023          	sw	a3,0(a0)
     f6c:	000f0113          	mv	sp,t5
     f70:	ffc12183          	lw	gp,-4(sp)
     f74:	ff812083          	lw	ra,-8(sp)
     f78:	bb0ff06f          	j	328 <andi_ret>

00000f7c <and>:
     f7c:	00010f13          	mv	t5,sp
     f80:	fe312e23          	sw	gp,-4(sp)
     f84:	fe112c23          	sw	ra,-8(sp)
     f88:	0000b537          	lui	a0,0xb
     f8c:	08450513          	addi	a0,a0,132 # b084 <and_data>
     f90:	10000637          	lui	a2,0x10000

00000f94 <.prname_next>:
     f94:	00050583          	lb	a1,0(a0)
     f98:	00058863          	beqz	a1,fa8 <.prname_done>
     f9c:	00b62023          	sw	a1,0(a2) # 10000000 <end+0xfff49c0>
     fa0:	00150513          	addi	a0,a0,1
     fa4:	ff1ff06f          	j	f94 <.prname_next>

00000fa8 <.prname_done>:
     fa8:	02e00593          	li	a1,46
     fac:	00b62023          	sw	a1,0(a2)
     fb0:	00b62023          	sw	a1,0(a2)

00000fb4 <test_2>:
     fb4:	ff0100b7          	lui	ra,0xff010
     fb8:	f0008093          	addi	ra,ra,-256 # ff00ff00 <end+0xff0048c0>
     fbc:	0f0f1137          	lui	sp,0xf0f1
     fc0:	f0f10113          	addi	sp,sp,-241 # f0f0f0f <end+0xf0e58cf>
     fc4:	0020f1b3          	and	gp,ra,sp
     fc8:	0f001eb7          	lui	t4,0xf001
     fcc:	f00e8e93          	addi	t4,t4,-256 # f000f00 <end+0xeff58c0>
     fd0:	00200e13          	li	t3,2
     fd4:	49d19c63          	bne	gp,t4,146c <fail>

00000fd8 <test_3>:
     fd8:	0ff010b7          	lui	ra,0xff01
     fdc:	ff008093          	addi	ra,ra,-16 # ff00ff0 <end+0xfef59b0>
     fe0:	f0f0f137          	lui	sp,0xf0f0f
     fe4:	0f010113          	addi	sp,sp,240 # f0f0f0f0 <end+0xf0f03ab0>
     fe8:	0020f1b3          	and	gp,ra,sp
     fec:	00f00eb7          	lui	t4,0xf00
     ff0:	0f0e8e93          	addi	t4,t4,240 # f000f0 <end+0xef4ab0>
     ff4:	00300e13          	li	t3,3
     ff8:	47d19a63          	bne	gp,t4,146c <fail>

00000ffc <test_4>:
     ffc:	00ff00b7          	lui	ra,0xff0
    1000:	0ff08093          	addi	ra,ra,255 # ff00ff <end+0xfe4abf>
    1004:	0f0f1137          	lui	sp,0xf0f1
    1008:	f0f10113          	addi	sp,sp,-241 # f0f0f0f <end+0xf0e58cf>
    100c:	0020f1b3          	and	gp,ra,sp
    1010:	000f0eb7          	lui	t4,0xf0
    1014:	00fe8e93          	addi	t4,t4,15 # f000f <end+0xe49cf>
    1018:	00400e13          	li	t3,4
    101c:	45d19863          	bne	gp,t4,146c <fail>

00001020 <test_5>:
    1020:	f00ff0b7          	lui	ra,0xf00ff
    1024:	00f08093          	addi	ra,ra,15 # f00ff00f <end+0xf00f39cf>
    1028:	f0f0f137          	lui	sp,0xf0f0f
    102c:	0f010113          	addi	sp,sp,240 # f0f0f0f0 <end+0xf0f03ab0>
    1030:	0020f1b3          	and	gp,ra,sp
    1034:	f000feb7          	lui	t4,0xf000f
    1038:	00500e13          	li	t3,5
    103c:	43d19863          	bne	gp,t4,146c <fail>

00001040 <test_6>:
    1040:	ff0100b7          	lui	ra,0xff010
    1044:	f0008093          	addi	ra,ra,-256 # ff00ff00 <end+0xff0048c0>
    1048:	0f0f1137          	lui	sp,0xf0f1
    104c:	f0f10113          	addi	sp,sp,-241 # f0f0f0f <end+0xf0e58cf>
    1050:	0020f0b3          	and	ra,ra,sp
    1054:	0f001eb7          	lui	t4,0xf001
    1058:	f00e8e93          	addi	t4,t4,-256 # f000f00 <end+0xeff58c0>
    105c:	00600e13          	li	t3,6
    1060:	41d09663          	bne	ra,t4,146c <fail>

00001064 <test_7>:
    1064:	0ff010b7          	lui	ra,0xff01
    1068:	ff008093          	addi	ra,ra,-16 # ff00ff0 <end+0xfef59b0>
    106c:	f0f0f137          	lui	sp,0xf0f0f
    1070:	0f010113          	addi	sp,sp,240 # f0f0f0f0 <end+0xf0f03ab0>
    1074:	0020f133          	and	sp,ra,sp
    1078:	00f00eb7          	lui	t4,0xf00
    107c:	0f0e8e93          	addi	t4,t4,240 # f000f0 <end+0xef4ab0>
    1080:	00700e13          	li	t3,7
    1084:	3fd11463          	bne	sp,t4,146c <fail>

00001088 <test_8>:
    1088:	ff0100b7          	lui	ra,0xff010
    108c:	f0008093          	addi	ra,ra,-256 # ff00ff00 <end+0xff0048c0>
    1090:	0010f0b3          	and	ra,ra,ra
    1094:	ff010eb7          	lui	t4,0xff010
    1098:	f00e8e93          	addi	t4,t4,-256 # ff00ff00 <end+0xff0048c0>
    109c:	00800e13          	li	t3,8
    10a0:	3dd09663          	bne	ra,t4,146c <fail>

000010a4 <test_9>:
    10a4:	00000213          	li	tp,0
    10a8:	ff0100b7          	lui	ra,0xff010
    10ac:	f0008093          	addi	ra,ra,-256 # ff00ff00 <end+0xff0048c0>
    10b0:	0f0f1137          	lui	sp,0xf0f1
    10b4:	f0f10113          	addi	sp,sp,-241 # f0f0f0f <end+0xf0e58cf>
    10b8:	0020f1b3          	and	gp,ra,sp
    10bc:	00018313          	mv	t1,gp
    10c0:	00120213          	addi	tp,tp,1 # 1 <__boot_address-0x17f>
    10c4:	00200293          	li	t0,2
    10c8:	fe5210e3          	bne	tp,t0,10a8 <test_9+0x4>
    10cc:	0f001eb7          	lui	t4,0xf001
    10d0:	f00e8e93          	addi	t4,t4,-256 # f000f00 <end+0xeff58c0>
    10d4:	00900e13          	li	t3,9
    10d8:	39d31a63          	bne	t1,t4,146c <fail>

000010dc <test_10>:
    10dc:	00000213          	li	tp,0
    10e0:	0ff010b7          	lui	ra,0xff01
    10e4:	ff008093          	addi	ra,ra,-16 # ff00ff0 <end+0xfef59b0>
    10e8:	f0f0f137          	lui	sp,0xf0f0f
    10ec:	0f010113          	addi	sp,sp,240 # f0f0f0f0 <end+0xf0f03ab0>
    10f0:	0020f1b3          	and	gp,ra,sp
    10f4:	00000013          	nop
    10f8:	00018313          	mv	t1,gp
    10fc:	00120213          	addi	tp,tp,1 # 1 <__boot_address-0x17f>
    1100:	00200293          	li	t0,2
    1104:	fc521ee3          	bne	tp,t0,10e0 <test_10+0x4>
    1108:	00f00eb7          	lui	t4,0xf00
    110c:	0f0e8e93          	addi	t4,t4,240 # f000f0 <end+0xef4ab0>
    1110:	00a00e13          	li	t3,10
    1114:	35d31c63          	bne	t1,t4,146c <fail>

00001118 <test_11>:
    1118:	00000213          	li	tp,0
    111c:	00ff00b7          	lui	ra,0xff0
    1120:	0ff08093          	addi	ra,ra,255 # ff00ff <end+0xfe4abf>
    1124:	0f0f1137          	lui	sp,0xf0f1
    1128:	f0f10113          	addi	sp,sp,-241 # f0f0f0f <end+0xf0e58cf>
    112c:	0020f1b3          	and	gp,ra,sp
    1130:	00000013          	nop
    1134:	00000013          	nop
    1138:	00018313          	mv	t1,gp
    113c:	00120213          	addi	tp,tp,1 # 1 <__boot_address-0x17f>
    1140:	00200293          	li	t0,2
    1144:	fc521ce3          	bne	tp,t0,111c <test_11+0x4>
    1148:	000f0eb7          	lui	t4,0xf0
    114c:	00fe8e93          	addi	t4,t4,15 # f000f <end+0xe49cf>
    1150:	00b00e13          	li	t3,11
    1154:	31d31c63          	bne	t1,t4,146c <fail>

00001158 <test_12>:
    1158:	00000213          	li	tp,0
    115c:	ff0100b7          	lui	ra,0xff010
    1160:	f0008093          	addi	ra,ra,-256 # ff00ff00 <end+0xff0048c0>
    1164:	0f0f1137          	lui	sp,0xf0f1
    1168:	f0f10113          	addi	sp,sp,-241 # f0f0f0f <end+0xf0e58cf>
    116c:	0020f1b3          	and	gp,ra,sp
    1170:	00120213          	addi	tp,tp,1 # 1 <__boot_address-0x17f>
    1174:	00200293          	li	t0,2
    1178:	fe5212e3          	bne	tp,t0,115c <test_12+0x4>
    117c:	0f001eb7          	lui	t4,0xf001
    1180:	f00e8e93          	addi	t4,t4,-256 # f000f00 <end+0xeff58c0>
    1184:	00c00e13          	li	t3,12
    1188:	2fd19263          	bne	gp,t4,146c <fail>

0000118c <test_13>:
    118c:	00000213          	li	tp,0
    1190:	0ff010b7          	lui	ra,0xff01
    1194:	ff008093          	addi	ra,ra,-16 # ff00ff0 <end+0xfef59b0>
    1198:	f0f0f137          	lui	sp,0xf0f0f
    119c:	0f010113          	addi	sp,sp,240 # f0f0f0f0 <end+0xf0f03ab0>
    11a0:	00000013          	nop
    11a4:	0020f1b3          	and	gp,ra,sp
    11a8:	00120213          	addi	tp,tp,1 # 1 <__boot_address-0x17f>
    11ac:	00200293          	li	t0,2
    11b0:	fe5210e3          	bne	tp,t0,1190 <test_13+0x4>
    11b4:	00f00eb7          	lui	t4,0xf00
    11b8:	0f0e8e93          	addi	t4,t4,240 # f000f0 <end+0xef4ab0>
    11bc:	00d00e13          	li	t3,13
    11c0:	2bd19663          	bne	gp,t4,146c <fail>

000011c4 <test_14>:
    11c4:	00000213          	li	tp,0
    11c8:	00ff00b7          	lui	ra,0xff0
    11cc:	0ff08093          	addi	ra,ra,255 # ff00ff <end+0xfe4abf>
    11d0:	0f0f1137          	lui	sp,0xf0f1
    11d4:	f0f10113          	addi	sp,sp,-241 # f0f0f0f <end+0xf0e58cf>
    11d8:	00000013          	nop
    11dc:	00000013          	nop
    11e0:	0020f1b3          	and	gp,ra,sp
    11e4:	00120213          	addi	tp,tp,1 # 1 <__boot_address-0x17f>
    11e8:	00200293          	li	t0,2
    11ec:	fc521ee3          	bne	tp,t0,11c8 <test_14+0x4>
    11f0:	000f0eb7          	lui	t4,0xf0
    11f4:	00fe8e93          	addi	t4,t4,15 # f000f <end+0xe49cf>
    11f8:	00e00e13          	li	t3,14
    11fc:	27d19863          	bne	gp,t4,146c <fail>

00001200 <test_15>:
    1200:	00000213          	li	tp,0
    1204:	ff0100b7          	lui	ra,0xff010
    1208:	f0008093          	addi	ra,ra,-256 # ff00ff00 <end+0xff0048c0>
    120c:	00000013          	nop
    1210:	0f0f1137          	lui	sp,0xf0f1
    1214:	f0f10113          	addi	sp,sp,-241 # f0f0f0f <end+0xf0e58cf>
    1218:	0020f1b3          	and	gp,ra,sp
    121c:	00120213          	addi	tp,tp,1 # 1 <__boot_address-0x17f>
    1220:	00200293          	li	t0,2
    1224:	fe5210e3          	bne	tp,t0,1204 <test_15+0x4>
    1228:	0f001eb7          	lui	t4,0xf001
    122c:	f00e8e93          	addi	t4,t4,-256 # f000f00 <end+0xeff58c0>
    1230:	00f00e13          	li	t3,15
    1234:	23d19c63          	bne	gp,t4,146c <fail>

00001238 <test_16>:
    1238:	00000213          	li	tp,0
    123c:	0ff010b7          	lui	ra,0xff01
    1240:	ff008093          	addi	ra,ra,-16 # ff00ff0 <end+0xfef59b0>
    1244:	00000013          	nop
    1248:	f0f0f137          	lui	sp,0xf0f0f
    124c:	0f010113          	addi	sp,sp,240 # f0f0f0f0 <end+0xf0f03ab0>
    1250:	00000013          	nop
    1254:	0020f1b3          	and	gp,ra,sp
    1258:	00120213          	addi	tp,tp,1 # 1 <__boot_address-0x17f>
    125c:	00200293          	li	t0,2
    1260:	fc521ee3          	bne	tp,t0,123c <test_16+0x4>
    1264:	00f00eb7          	lui	t4,0xf00
    1268:	0f0e8e93          	addi	t4,t4,240 # f000f0 <end+0xef4ab0>
    126c:	01000e13          	li	t3,16
    1270:	1fd19e63          	bne	gp,t4,146c <fail>

00001274 <test_17>:
    1274:	00000213          	li	tp,0
    1278:	00ff00b7          	lui	ra,0xff0
    127c:	0ff08093          	addi	ra,ra,255 # ff00ff <end+0xfe4abf>
    1280:	00000013          	nop
    1284:	00000013          	nop
    1288:	0f0f1137          	lui	sp,0xf0f1
    128c:	f0f10113          	addi	sp,sp,-241 # f0f0f0f <end+0xf0e58cf>
    1290:	0020f1b3          	and	gp,ra,sp
    1294:	00120213          	addi	tp,tp,1 # 1 <__boot_address-0x17f>
    1298:	00200293          	li	t0,2
    129c:	fc521ee3          	bne	tp,t0,1278 <test_17+0x4>
    12a0:	000f0eb7          	lui	t4,0xf0
    12a4:	00fe8e93          	addi	t4,t4,15 # f000f <end+0xe49cf>
    12a8:	01100e13          	li	t3,17
    12ac:	1dd19063          	bne	gp,t4,146c <fail>

000012b0 <test_18>:
    12b0:	00000213          	li	tp,0
    12b4:	0f0f1137          	lui	sp,0xf0f1
    12b8:	f0f10113          	addi	sp,sp,-241 # f0f0f0f <end+0xf0e58cf>
    12bc:	ff0100b7          	lui	ra,0xff010
    12c0:	f0008093          	addi	ra,ra,-256 # ff00ff00 <end+0xff0048c0>
    12c4:	0020f1b3          	and	gp,ra,sp
    12c8:	00120213          	addi	tp,tp,1 # 1 <__boot_address-0x17f>
    12cc:	00200293          	li	t0,2
    12d0:	fe5212e3          	bne	tp,t0,12b4 <test_18+0x4>
    12d4:	0f001eb7          	lui	t4,0xf001
    12d8:	f00e8e93          	addi	t4,t4,-256 # f000f00 <end+0xeff58c0>
    12dc:	01200e13          	li	t3,18
    12e0:	19d19663          	bne	gp,t4,146c <fail>

000012e4 <test_19>:
    12e4:	00000213          	li	tp,0
    12e8:	f0f0f137          	lui	sp,0xf0f0f
    12ec:	0f010113          	addi	sp,sp,240 # f0f0f0f0 <end+0xf0f03ab0>
    12f0:	0ff010b7          	lui	ra,0xff01
    12f4:	ff008093          	addi	ra,ra,-16 # ff00ff0 <end+0xfef59b0>
    12f8:	00000013          	nop
    12fc:	0020f1b3          	and	gp,ra,sp
    1300:	00120213          	addi	tp,tp,1 # 1 <__boot_address-0x17f>
    1304:	00200293          	li	t0,2
    1308:	fe5210e3          	bne	tp,t0,12e8 <test_19+0x4>
    130c:	00f00eb7          	lui	t4,0xf00
    1310:	0f0e8e93          	addi	t4,t4,240 # f000f0 <end+0xef4ab0>
    1314:	01300e13          	li	t3,19
    1318:	15d19a63          	bne	gp,t4,146c <fail>

0000131c <test_20>:
    131c:	00000213          	li	tp,0
    1320:	0f0f1137          	lui	sp,0xf0f1
    1324:	f0f10113          	addi	sp,sp,-241 # f0f0f0f <end+0xf0e58cf>
    1328:	00ff00b7          	lui	ra,0xff0
    132c:	0ff08093          	addi	ra,ra,255 # ff00ff <end+0xfe4abf>
    1330:	00000013          	nop
    1334:	00000013          	nop
    1338:	0020f1b3          	and	gp,ra,sp
    133c:	00120213          	addi	tp,tp,1 # 1 <__boot_address-0x17f>
    1340:	00200293          	li	t0,2
    1344:	fc521ee3          	bne	tp,t0,1320 <test_20+0x4>
    1348:	000f0eb7          	lui	t4,0xf0
    134c:	00fe8e93          	addi	t4,t4,15 # f000f <end+0xe49cf>
    1350:	01400e13          	li	t3,20
    1354:	11d19c63          	bne	gp,t4,146c <fail>

00001358 <test_21>:
    1358:	00000213          	li	tp,0
    135c:	0f0f1137          	lui	sp,0xf0f1
    1360:	f0f10113          	addi	sp,sp,-241 # f0f0f0f <end+0xf0e58cf>
    1364:	00000013          	nop
    1368:	ff0100b7          	lui	ra,0xff010
    136c:	f0008093          	addi	ra,ra,-256 # ff00ff00 <end+0xff0048c0>
    1370:	0020f1b3          	and	gp,ra,sp
    1374:	00120213          	addi	tp,tp,1 # 1 <__boot_address-0x17f>
    1378:	00200293          	li	t0,2
    137c:	fe5210e3          	bne	tp,t0,135c <test_21+0x4>
    1380:	0f001eb7          	lui	t4,0xf001
    1384:	f00e8e93          	addi	t4,t4,-256 # f000f00 <end+0xeff58c0>
    1388:	01500e13          	li	t3,21
    138c:	0fd19063          	bne	gp,t4,146c <fail>

00001390 <test_22>:
    1390:	00000213          	li	tp,0
    1394:	f0f0f137          	lui	sp,0xf0f0f
    1398:	0f010113          	addi	sp,sp,240 # f0f0f0f0 <end+0xf0f03ab0>
    139c:	00000013          	nop
    13a0:	0ff010b7          	lui	ra,0xff01
    13a4:	ff008093          	addi	ra,ra,-16 # ff00ff0 <end+0xfef59b0>
    13a8:	00000013          	nop
    13ac:	0020f1b3          	and	gp,ra,sp
    13b0:	00120213          	addi	tp,tp,1 # 1 <__boot_address-0x17f>
    13b4:	00200293          	li	t0,2
    13b8:	fc521ee3          	bne	tp,t0,1394 <test_22+0x4>
    13bc:	00f00eb7          	lui	t4,0xf00
    13c0:	0f0e8e93          	addi	t4,t4,240 # f000f0 <end+0xef4ab0>
    13c4:	01600e13          	li	t3,22
    13c8:	0bd19263          	bne	gp,t4,146c <fail>

000013cc <test_23>:
    13cc:	00000213          	li	tp,0
    13d0:	0f0f1137          	lui	sp,0xf0f1
    13d4:	f0f10113          	addi	sp,sp,-241 # f0f0f0f <end+0xf0e58cf>
    13d8:	00000013          	nop
    13dc:	00000013          	nop
    13e0:	00ff00b7          	lui	ra,0xff0
    13e4:	0ff08093          	addi	ra,ra,255 # ff00ff <end+0xfe4abf>
    13e8:	0020f1b3          	and	gp,ra,sp
    13ec:	00120213          	addi	tp,tp,1 # 1 <__boot_address-0x17f>
    13f0:	00200293          	li	t0,2
    13f4:	fc521ee3          	bne	tp,t0,13d0 <test_23+0x4>
    13f8:	000f0eb7          	lui	t4,0xf0
    13fc:	00fe8e93          	addi	t4,t4,15 # f000f <end+0xe49cf>
    1400:	01700e13          	li	t3,23
    1404:	07d19463          	bne	gp,t4,146c <fail>

00001408 <test_24>:
    1408:	ff0100b7          	lui	ra,0xff010
    140c:	f0008093          	addi	ra,ra,-256 # ff00ff00 <end+0xff0048c0>
    1410:	00107133          	and	sp,zero,ra
    1414:	00000e93          	li	t4,0
    1418:	01800e13          	li	t3,24
    141c:	05d11863          	bne	sp,t4,146c <fail>

00001420 <test_25>:
    1420:	00ff00b7          	lui	ra,0xff0
    1424:	0ff08093          	addi	ra,ra,255 # ff00ff <end+0xfe4abf>
    1428:	0000f133          	and	sp,ra,zero
    142c:	00000e93          	li	t4,0
    1430:	01900e13          	li	t3,25
    1434:	03d11c63          	bne	sp,t4,146c <fail>

00001438 <test_26>:
    1438:	000070b3          	and	ra,zero,zero
    143c:	00000e93          	li	t4,0
    1440:	01a00e13          	li	t3,26
    1444:	03d09463          	bne	ra,t4,146c <fail>

00001448 <test_27>:
    1448:	111110b7          	lui	ra,0x11111
    144c:	11108093          	addi	ra,ra,273 # 11111111 <end+0x11105ad1>
    1450:	22222137          	lui	sp,0x22222
    1454:	22210113          	addi	sp,sp,546 # 22222222 <end+0x22216be2>
    1458:	0020f033          	and	zero,ra,sp
    145c:	00000e93          	li	t4,0
    1460:	01b00e13          	li	t3,27
    1464:	01d01463          	bne	zero,t4,146c <fail>
    1468:	03c01a63          	bne	zero,t3,149c <pass>

0000146c <fail>:
    146c:	10000537          	lui	a0,0x10000
    1470:	04500593          	li	a1,69
    1474:	05200613          	li	a2,82
    1478:	04f00693          	li	a3,79
    147c:	00a00713          	li	a4,10
    1480:	00b52023          	sw	a1,0(a0) # 10000000 <end+0xfff49c0>
    1484:	00c52023          	sw	a2,0(a0)
    1488:	00c52023          	sw	a2,0(a0)
    148c:	00d52023          	sw	a3,0(a0)
    1490:	00c52023          	sw	a2,0(a0)
    1494:	00e52023          	sw	a4,0(a0)
    1498:	00100073          	ebreak

0000149c <pass>:
    149c:	10000537          	lui	a0,0x10000
    14a0:	04f00593          	li	a1,79
    14a4:	04b00613          	li	a2,75
    14a8:	00a00693          	li	a3,10
    14ac:	00b52023          	sw	a1,0(a0) # 10000000 <end+0xfff49c0>
    14b0:	00c52023          	sw	a2,0(a0)
    14b4:	00d52023          	sw	a3,0(a0)
    14b8:	000f0113          	mv	sp,t5
    14bc:	ffc12183          	lw	gp,-4(sp)
    14c0:	ff812083          	lw	ra,-8(sp)
    14c4:	ec5fe06f          	j	388 <and_ret>

000014c8 <auipc>:
    14c8:	00010f13          	mv	t5,sp
    14cc:	fe312e23          	sw	gp,-4(sp)
    14d0:	fe112c23          	sw	ra,-8(sp)
    14d4:	0000b537          	lui	a0,0xb
    14d8:	0a450513          	addi	a0,a0,164 # b0a4 <auipc_data>
    14dc:	10000637          	lui	a2,0x10000

000014e0 <.prname_next>:
    14e0:	00050583          	lb	a1,0(a0)
    14e4:	00058863          	beqz	a1,14f4 <.prname_done>
    14e8:	00b62023          	sw	a1,0(a2) # 10000000 <end+0xfff49c0>
    14ec:	00150513          	addi	a0,a0,1
    14f0:	ff1ff06f          	j	14e0 <.prname_next>

000014f4 <.prname_done>:
    14f4:	02e00593          	li	a1,46
    14f8:	00b62023          	sw	a1,0(a2)
    14fc:	00b62023          	sw	a1,0(a2)

00001500 <test_2>:
    1500:	00002517          	auipc	a0,0x2
    1504:	71c50513          	addi	a0,a0,1820 # 3c1c <test_11+0x8>
    1508:	004005ef          	jal	a1,150c <test_2+0xc>
    150c:	40b50533          	sub	a0,a0,a1
    1510:	00002eb7          	lui	t4,0x2
    1514:	710e8e93          	addi	t4,t4,1808 # 2710 <fail>
    1518:	00200e13          	li	t3,2
    151c:	03d51463          	bne	a0,t4,1544 <fail>

00001520 <test_3>:
    1520:	ffffe517          	auipc	a0,0xffffe
    1524:	8fc50513          	addi	a0,a0,-1796 # ffffee1c <end+0xffff37dc>
    1528:	004005ef          	jal	a1,152c <test_3+0xc>
    152c:	40b50533          	sub	a0,a0,a1
    1530:	ffffeeb7          	lui	t4,0xffffe
    1534:	8f0e8e93          	addi	t4,t4,-1808 # ffffd8f0 <end+0xffff22b0>
    1538:	00300e13          	li	t3,3
    153c:	01d51463          	bne	a0,t4,1544 <fail>
    1540:	03c01a63          	bne	zero,t3,1574 <pass>

00001544 <fail>:
    1544:	10000537          	lui	a0,0x10000
    1548:	04500593          	li	a1,69
    154c:	05200613          	li	a2,82
    1550:	04f00693          	li	a3,79
    1554:	00a00713          	li	a4,10
    1558:	00b52023          	sw	a1,0(a0) # 10000000 <end+0xfff49c0>
    155c:	00c52023          	sw	a2,0(a0)
    1560:	00c52023          	sw	a2,0(a0)
    1564:	00d52023          	sw	a3,0(a0)
    1568:	00c52023          	sw	a2,0(a0)
    156c:	00e52023          	sw	a4,0(a0)
    1570:	00100073          	ebreak

00001574 <pass>:
    1574:	10000537          	lui	a0,0x10000
    1578:	04f00593          	li	a1,79
    157c:	04b00613          	li	a2,75
    1580:	00a00693          	li	a3,10
    1584:	00b52023          	sw	a1,0(a0) # 10000000 <end+0xfff49c0>
    1588:	00c52023          	sw	a2,0(a0)
    158c:	00d52023          	sw	a3,0(a0)
    1590:	000f0113          	mv	sp,t5
    1594:	ffc12183          	lw	gp,-4(sp)
    1598:	ff812083          	lw	ra,-8(sp)
    159c:	cddfe06f          	j	278 <auipc_ret>

000015a0 <beq>:
    15a0:	00010f13          	mv	t5,sp
    15a4:	fe312e23          	sw	gp,-4(sp)
    15a8:	fe112c23          	sw	ra,-8(sp)
    15ac:	0000b537          	lui	a0,0xb
    15b0:	0c850513          	addi	a0,a0,200 # b0c8 <beq_data>
    15b4:	10000637          	lui	a2,0x10000

000015b8 <.prname_next>:
    15b8:	00050583          	lb	a1,0(a0)
    15bc:	00058863          	beqz	a1,15cc <.prname_done>
    15c0:	00b62023          	sw	a1,0(a2) # 10000000 <end+0xfff49c0>
    15c4:	00150513          	addi	a0,a0,1
    15c8:	ff1ff06f          	j	15b8 <.prname_next>

000015cc <.prname_done>:
    15cc:	02e00593          	li	a1,46
    15d0:	00b62023          	sw	a1,0(a2)
    15d4:	00b62023          	sw	a1,0(a2)

000015d8 <test_2>:
    15d8:	00200e13          	li	t3,2
    15dc:	00000093          	li	ra,0
    15e0:	00000113          	li	sp,0
    15e4:	00208663          	beq	ra,sp,15f0 <test_2+0x18>
    15e8:	2bc01863          	bne	zero,t3,1898 <fail>
    15ec:	01c01663          	bne	zero,t3,15f8 <test_3>
    15f0:	fe208ee3          	beq	ra,sp,15ec <test_2+0x14>
    15f4:	2bc01263          	bne	zero,t3,1898 <fail>

000015f8 <test_3>:
    15f8:	00300e13          	li	t3,3
    15fc:	00100093          	li	ra,1
    1600:	00100113          	li	sp,1
    1604:	00208663          	beq	ra,sp,1610 <test_3+0x18>
    1608:	29c01863          	bne	zero,t3,1898 <fail>
    160c:	01c01663          	bne	zero,t3,1618 <test_4>
    1610:	fe208ee3          	beq	ra,sp,160c <test_3+0x14>
    1614:	29c01263          	bne	zero,t3,1898 <fail>

00001618 <test_4>:
    1618:	00400e13          	li	t3,4
    161c:	fff00093          	li	ra,-1
    1620:	fff00113          	li	sp,-1
    1624:	00208663          	beq	ra,sp,1630 <test_4+0x18>
    1628:	27c01863          	bne	zero,t3,1898 <fail>
    162c:	01c01663          	bne	zero,t3,1638 <test_5>
    1630:	fe208ee3          	beq	ra,sp,162c <test_4+0x14>
    1634:	27c01263          	bne	zero,t3,1898 <fail>

00001638 <test_5>:
    1638:	00500e13          	li	t3,5
    163c:	00000093          	li	ra,0
    1640:	00100113          	li	sp,1
    1644:	00208463          	beq	ra,sp,164c <test_5+0x14>
    1648:	01c01463          	bne	zero,t3,1650 <test_5+0x18>
    164c:	25c01663          	bne	zero,t3,1898 <fail>
    1650:	fe208ee3          	beq	ra,sp,164c <test_5+0x14>

00001654 <test_6>:
    1654:	00600e13          	li	t3,6
    1658:	00100093          	li	ra,1
    165c:	00000113          	li	sp,0
    1660:	00208463          	beq	ra,sp,1668 <test_6+0x14>
    1664:	01c01463          	bne	zero,t3,166c <test_6+0x18>
    1668:	23c01863          	bne	zero,t3,1898 <fail>
    166c:	fe208ee3          	beq	ra,sp,1668 <test_6+0x14>

00001670 <test_7>:
    1670:	00700e13          	li	t3,7
    1674:	fff00093          	li	ra,-1
    1678:	00100113          	li	sp,1
    167c:	00208463          	beq	ra,sp,1684 <test_7+0x14>
    1680:	01c01463          	bne	zero,t3,1688 <test_7+0x18>
    1684:	21c01a63          	bne	zero,t3,1898 <fail>
    1688:	fe208ee3          	beq	ra,sp,1684 <test_7+0x14>

0000168c <test_8>:
    168c:	00800e13          	li	t3,8
    1690:	00100093          	li	ra,1
    1694:	fff00113          	li	sp,-1
    1698:	00208463          	beq	ra,sp,16a0 <test_8+0x14>
    169c:	01c01463          	bne	zero,t3,16a4 <test_8+0x18>
    16a0:	1fc01c63          	bne	zero,t3,1898 <fail>
    16a4:	fe208ee3          	beq	ra,sp,16a0 <test_8+0x14>

000016a8 <test_9>:
    16a8:	00900e13          	li	t3,9
    16ac:	00000213          	li	tp,0
    16b0:	00000093          	li	ra,0
    16b4:	fff00113          	li	sp,-1
    16b8:	1e208063          	beq	ra,sp,1898 <fail>
    16bc:	00120213          	addi	tp,tp,1 # 1 <__boot_address-0x17f>
    16c0:	00200293          	li	t0,2
    16c4:	fe5216e3          	bne	tp,t0,16b0 <test_9+0x8>

000016c8 <test_10>:
    16c8:	00a00e13          	li	t3,10
    16cc:	00000213          	li	tp,0
    16d0:	00000093          	li	ra,0
    16d4:	fff00113          	li	sp,-1
    16d8:	00000013          	nop
    16dc:	1a208e63          	beq	ra,sp,1898 <fail>
    16e0:	00120213          	addi	tp,tp,1 # 1 <__boot_address-0x17f>
    16e4:	00200293          	li	t0,2
    16e8:	fe5214e3          	bne	tp,t0,16d0 <test_10+0x8>

000016ec <test_11>:
    16ec:	00b00e13          	li	t3,11
    16f0:	00000213          	li	tp,0
    16f4:	00000093          	li	ra,0
    16f8:	fff00113          	li	sp,-1
    16fc:	00000013          	nop
    1700:	00000013          	nop
    1704:	18208a63          	beq	ra,sp,1898 <fail>
    1708:	00120213          	addi	tp,tp,1 # 1 <__boot_address-0x17f>
    170c:	00200293          	li	t0,2
    1710:	fe5212e3          	bne	tp,t0,16f4 <test_11+0x8>

00001714 <test_12>:
    1714:	00c00e13          	li	t3,12
    1718:	00000213          	li	tp,0
    171c:	00000093          	li	ra,0
    1720:	00000013          	nop
    1724:	fff00113          	li	sp,-1
    1728:	16208863          	beq	ra,sp,1898 <fail>
    172c:	00120213          	addi	tp,tp,1 # 1 <__boot_address-0x17f>
    1730:	00200293          	li	t0,2
    1734:	fe5214e3          	bne	tp,t0,171c <test_12+0x8>

00001738 <test_13>:
    1738:	00d00e13          	li	t3,13
    173c:	00000213          	li	tp,0
    1740:	00000093          	li	ra,0
    1744:	00000013          	nop
    1748:	fff00113          	li	sp,-1
    174c:	00000013          	nop
    1750:	14208463          	beq	ra,sp,1898 <fail>
    1754:	00120213          	addi	tp,tp,1 # 1 <__boot_address-0x17f>
    1758:	00200293          	li	t0,2
    175c:	fe5212e3          	bne	tp,t0,1740 <test_13+0x8>

00001760 <test_14>:
    1760:	00e00e13          	li	t3,14
    1764:	00000213          	li	tp,0
    1768:	00000093          	li	ra,0
    176c:	00000013          	nop
    1770:	00000013          	nop
    1774:	fff00113          	li	sp,-1
    1778:	12208063          	beq	ra,sp,1898 <fail>
    177c:	00120213          	addi	tp,tp,1 # 1 <__boot_address-0x17f>
    1780:	00200293          	li	t0,2
    1784:	fe5212e3          	bne	tp,t0,1768 <test_14+0x8>

00001788 <test_15>:
    1788:	00f00e13          	li	t3,15
    178c:	00000213          	li	tp,0
    1790:	00000093          	li	ra,0
    1794:	fff00113          	li	sp,-1
    1798:	10208063          	beq	ra,sp,1898 <fail>
    179c:	00120213          	addi	tp,tp,1 # 1 <__boot_address-0x17f>
    17a0:	00200293          	li	t0,2
    17a4:	fe5216e3          	bne	tp,t0,1790 <test_15+0x8>

000017a8 <test_16>:
    17a8:	01000e13          	li	t3,16
    17ac:	00000213          	li	tp,0
    17b0:	00000093          	li	ra,0
    17b4:	fff00113          	li	sp,-1
    17b8:	00000013          	nop
    17bc:	0c208e63          	beq	ra,sp,1898 <fail>
    17c0:	00120213          	addi	tp,tp,1 # 1 <__boot_address-0x17f>
    17c4:	00200293          	li	t0,2
    17c8:	fe5214e3          	bne	tp,t0,17b0 <test_16+0x8>

000017cc <test_17>:
    17cc:	01100e13          	li	t3,17
    17d0:	00000213          	li	tp,0
    17d4:	00000093          	li	ra,0
    17d8:	fff00113          	li	sp,-1
    17dc:	00000013          	nop
    17e0:	00000013          	nop
    17e4:	0a208a63          	beq	ra,sp,1898 <fail>
    17e8:	00120213          	addi	tp,tp,1 # 1 <__boot_address-0x17f>
    17ec:	00200293          	li	t0,2
    17f0:	fe5212e3          	bne	tp,t0,17d4 <test_17+0x8>

000017f4 <test_18>:
    17f4:	01200e13          	li	t3,18
    17f8:	00000213          	li	tp,0
    17fc:	00000093          	li	ra,0
    1800:	00000013          	nop
    1804:	fff00113          	li	sp,-1
    1808:	08208863          	beq	ra,sp,1898 <fail>
    180c:	00120213          	addi	tp,tp,1 # 1 <__boot_address-0x17f>
    1810:	00200293          	li	t0,2
    1814:	fe5214e3          	bne	tp,t0,17fc <test_18+0x8>

00001818 <test_19>:
    1818:	01300e13          	li	t3,19
    181c:	00000213          	li	tp,0
    1820:	00000093          	li	ra,0
    1824:	00000013          	nop
    1828:	fff00113          	li	sp,-1
    182c:	00000013          	nop
    1830:	06208463          	beq	ra,sp,1898 <fail>
    1834:	00120213          	addi	tp,tp,1 # 1 <__boot_address-0x17f>
    1838:	00200293          	li	t0,2
    183c:	fe5212e3          	bne	tp,t0,1820 <test_19+0x8>

00001840 <test_20>:
    1840:	01400e13          	li	t3,20
    1844:	00000213          	li	tp,0
    1848:	00000093          	li	ra,0
    184c:	00000013          	nop
    1850:	00000013          	nop
    1854:	fff00113          	li	sp,-1
    1858:	04208063          	beq	ra,sp,1898 <fail>
    185c:	00120213          	addi	tp,tp,1 # 1 <__boot_address-0x17f>
    1860:	00200293          	li	t0,2
    1864:	fe5212e3          	bne	tp,t0,1848 <test_20+0x8>

00001868 <test_21>:
    1868:	00100093          	li	ra,1
    186c:	00000a63          	beqz	zero,1880 <test_21+0x18>
    1870:	00108093          	addi	ra,ra,1
    1874:	00108093          	addi	ra,ra,1
    1878:	00108093          	addi	ra,ra,1
    187c:	00108093          	addi	ra,ra,1
    1880:	00108093          	addi	ra,ra,1
    1884:	00108093          	addi	ra,ra,1
    1888:	00300e93          	li	t4,3
    188c:	01500e13          	li	t3,21
    1890:	01d09463          	bne	ra,t4,1898 <fail>
    1894:	03c01a63          	bne	zero,t3,18c8 <pass>

00001898 <fail>:
    1898:	10000537          	lui	a0,0x10000
    189c:	04500593          	li	a1,69
    18a0:	05200613          	li	a2,82
    18a4:	04f00693          	li	a3,79
    18a8:	00a00713          	li	a4,10
    18ac:	00b52023          	sw	a1,0(a0) # 10000000 <end+0xfff49c0>
    18b0:	00c52023          	sw	a2,0(a0)
    18b4:	00c52023          	sw	a2,0(a0)
    18b8:	00d52023          	sw	a3,0(a0)
    18bc:	00c52023          	sw	a2,0(a0)
    18c0:	00e52023          	sw	a4,0(a0)
    18c4:	00100073          	ebreak

000018c8 <pass>:
    18c8:	10000537          	lui	a0,0x10000
    18cc:	04f00593          	li	a1,79
    18d0:	04b00613          	li	a2,75
    18d4:	00a00693          	li	a3,10
    18d8:	00b52023          	sw	a1,0(a0) # 10000000 <end+0xfff49c0>
    18dc:	00c52023          	sw	a2,0(a0)
    18e0:	00d52023          	sw	a3,0(a0)
    18e4:	000f0113          	mv	sp,t5
    18e8:	ffc12183          	lw	gp,-4(sp)
    18ec:	ff812083          	lw	ra,-8(sp)
    18f0:	9a9fe06f          	j	298 <beq_ret>

000018f4 <bge>:
    18f4:	00010f13          	mv	t5,sp
    18f8:	fe312e23          	sw	gp,-4(sp)
    18fc:	fe112c23          	sw	ra,-8(sp)
    1900:	0000b537          	lui	a0,0xb
    1904:	0e850513          	addi	a0,a0,232 # b0e8 <bge_data>
    1908:	10000637          	lui	a2,0x10000

0000190c <.prname_next>:
    190c:	00050583          	lb	a1,0(a0)
    1910:	00058863          	beqz	a1,1920 <.prname_done>
    1914:	00b62023          	sw	a1,0(a2) # 10000000 <end+0xfff49c0>
    1918:	00150513          	addi	a0,a0,1
    191c:	ff1ff06f          	j	190c <.prname_next>

00001920 <.prname_done>:
    1920:	02e00593          	li	a1,46
    1924:	00b62023          	sw	a1,0(a2)
    1928:	00b62023          	sw	a1,0(a2)

0000192c <test_2>:
    192c:	00200e13          	li	t3,2
    1930:	00000093          	li	ra,0
    1934:	00000113          	li	sp,0
    1938:	0020d663          	ble	sp,ra,1944 <test_2+0x18>
    193c:	31c01863          	bne	zero,t3,1c4c <fail>
    1940:	01c01663          	bne	zero,t3,194c <test_3>
    1944:	fe20dee3          	ble	sp,ra,1940 <test_2+0x14>
    1948:	31c01263          	bne	zero,t3,1c4c <fail>

0000194c <test_3>:
    194c:	00300e13          	li	t3,3
    1950:	00100093          	li	ra,1
    1954:	00100113          	li	sp,1
    1958:	0020d663          	ble	sp,ra,1964 <test_3+0x18>
    195c:	2fc01863          	bne	zero,t3,1c4c <fail>
    1960:	01c01663          	bne	zero,t3,196c <test_4>
    1964:	fe20dee3          	ble	sp,ra,1960 <test_3+0x14>
    1968:	2fc01263          	bne	zero,t3,1c4c <fail>

0000196c <test_4>:
    196c:	00400e13          	li	t3,4
    1970:	fff00093          	li	ra,-1
    1974:	fff00113          	li	sp,-1
    1978:	0020d663          	ble	sp,ra,1984 <test_4+0x18>
    197c:	2dc01863          	bne	zero,t3,1c4c <fail>
    1980:	01c01663          	bne	zero,t3,198c <test_5>
    1984:	fe20dee3          	ble	sp,ra,1980 <test_4+0x14>
    1988:	2dc01263          	bne	zero,t3,1c4c <fail>

0000198c <test_5>:
    198c:	00500e13          	li	t3,5
    1990:	00100093          	li	ra,1
    1994:	00000113          	li	sp,0
    1998:	0020d663          	ble	sp,ra,19a4 <test_5+0x18>
    199c:	2bc01863          	bne	zero,t3,1c4c <fail>
    19a0:	01c01663          	bne	zero,t3,19ac <test_6>
    19a4:	fe20dee3          	ble	sp,ra,19a0 <test_5+0x14>
    19a8:	2bc01263          	bne	zero,t3,1c4c <fail>

000019ac <test_6>:
    19ac:	00600e13          	li	t3,6
    19b0:	00100093          	li	ra,1
    19b4:	fff00113          	li	sp,-1
    19b8:	0020d663          	ble	sp,ra,19c4 <test_6+0x18>
    19bc:	29c01863          	bne	zero,t3,1c4c <fail>
    19c0:	01c01663          	bne	zero,t3,19cc <test_7>
    19c4:	fe20dee3          	ble	sp,ra,19c0 <test_6+0x14>
    19c8:	29c01263          	bne	zero,t3,1c4c <fail>

000019cc <test_7>:
    19cc:	00700e13          	li	t3,7
    19d0:	fff00093          	li	ra,-1
    19d4:	ffe00113          	li	sp,-2
    19d8:	0020d663          	ble	sp,ra,19e4 <test_7+0x18>
    19dc:	27c01863          	bne	zero,t3,1c4c <fail>
    19e0:	01c01663          	bne	zero,t3,19ec <test_8>
    19e4:	fe20dee3          	ble	sp,ra,19e0 <test_7+0x14>
    19e8:	27c01263          	bne	zero,t3,1c4c <fail>

000019ec <test_8>:
    19ec:	00800e13          	li	t3,8
    19f0:	00000093          	li	ra,0
    19f4:	00100113          	li	sp,1
    19f8:	0020d463          	ble	sp,ra,1a00 <test_8+0x14>
    19fc:	01c01463          	bne	zero,t3,1a04 <test_8+0x18>
    1a00:	25c01663          	bne	zero,t3,1c4c <fail>
    1a04:	fe20dee3          	ble	sp,ra,1a00 <test_8+0x14>

00001a08 <test_9>:
    1a08:	00900e13          	li	t3,9
    1a0c:	fff00093          	li	ra,-1
    1a10:	00100113          	li	sp,1
    1a14:	0020d463          	ble	sp,ra,1a1c <test_9+0x14>
    1a18:	01c01463          	bne	zero,t3,1a20 <test_9+0x18>
    1a1c:	23c01863          	bne	zero,t3,1c4c <fail>
    1a20:	fe20dee3          	ble	sp,ra,1a1c <test_9+0x14>

00001a24 <test_10>:
    1a24:	00a00e13          	li	t3,10
    1a28:	ffe00093          	li	ra,-2
    1a2c:	fff00113          	li	sp,-1
    1a30:	0020d463          	ble	sp,ra,1a38 <test_10+0x14>
    1a34:	01c01463          	bne	zero,t3,1a3c <test_10+0x18>
    1a38:	21c01a63          	bne	zero,t3,1c4c <fail>
    1a3c:	fe20dee3          	ble	sp,ra,1a38 <test_10+0x14>

00001a40 <test_11>:
    1a40:	00b00e13          	li	t3,11
    1a44:	ffe00093          	li	ra,-2
    1a48:	00100113          	li	sp,1
    1a4c:	0020d463          	ble	sp,ra,1a54 <test_11+0x14>
    1a50:	01c01463          	bne	zero,t3,1a58 <test_11+0x18>
    1a54:	1fc01c63          	bne	zero,t3,1c4c <fail>
    1a58:	fe20dee3          	ble	sp,ra,1a54 <test_11+0x14>

00001a5c <test_12>:
    1a5c:	00c00e13          	li	t3,12
    1a60:	00000213          	li	tp,0
    1a64:	fff00093          	li	ra,-1
    1a68:	00000113          	li	sp,0
    1a6c:	1e20d063          	ble	sp,ra,1c4c <fail>
    1a70:	00120213          	addi	tp,tp,1 # 1 <__boot_address-0x17f>
    1a74:	00200293          	li	t0,2
    1a78:	fe5216e3          	bne	tp,t0,1a64 <test_12+0x8>

00001a7c <test_13>:
    1a7c:	00d00e13          	li	t3,13
    1a80:	00000213          	li	tp,0
    1a84:	fff00093          	li	ra,-1
    1a88:	00000113          	li	sp,0
    1a8c:	00000013          	nop
    1a90:	1a20de63          	ble	sp,ra,1c4c <fail>
    1a94:	00120213          	addi	tp,tp,1 # 1 <__boot_address-0x17f>
    1a98:	00200293          	li	t0,2
    1a9c:	fe5214e3          	bne	tp,t0,1a84 <test_13+0x8>

00001aa0 <test_14>:
    1aa0:	00e00e13          	li	t3,14
    1aa4:	00000213          	li	tp,0
    1aa8:	fff00093          	li	ra,-1
    1aac:	00000113          	li	sp,0
    1ab0:	00000013          	nop
    1ab4:	00000013          	nop
    1ab8:	1820da63          	ble	sp,ra,1c4c <fail>
    1abc:	00120213          	addi	tp,tp,1 # 1 <__boot_address-0x17f>
    1ac0:	00200293          	li	t0,2
    1ac4:	fe5212e3          	bne	tp,t0,1aa8 <test_14+0x8>

00001ac8 <test_15>:
    1ac8:	00f00e13          	li	t3,15
    1acc:	00000213          	li	tp,0
    1ad0:	fff00093          	li	ra,-1
    1ad4:	00000013          	nop
    1ad8:	00000113          	li	sp,0
    1adc:	1620d863          	ble	sp,ra,1c4c <fail>
    1ae0:	00120213          	addi	tp,tp,1 # 1 <__boot_address-0x17f>
    1ae4:	00200293          	li	t0,2
    1ae8:	fe5214e3          	bne	tp,t0,1ad0 <test_15+0x8>

00001aec <test_16>:
    1aec:	01000e13          	li	t3,16
    1af0:	00000213          	li	tp,0
    1af4:	fff00093          	li	ra,-1
    1af8:	00000013          	nop
    1afc:	00000113          	li	sp,0
    1b00:	00000013          	nop
    1b04:	1420d463          	ble	sp,ra,1c4c <fail>
    1b08:	00120213          	addi	tp,tp,1 # 1 <__boot_address-0x17f>
    1b0c:	00200293          	li	t0,2
    1b10:	fe5212e3          	bne	tp,t0,1af4 <test_16+0x8>

00001b14 <test_17>:
    1b14:	01100e13          	li	t3,17
    1b18:	00000213          	li	tp,0
    1b1c:	fff00093          	li	ra,-1
    1b20:	00000013          	nop
    1b24:	00000013          	nop
    1b28:	00000113          	li	sp,0
    1b2c:	1220d063          	ble	sp,ra,1c4c <fail>
    1b30:	00120213          	addi	tp,tp,1 # 1 <__boot_address-0x17f>
    1b34:	00200293          	li	t0,2
    1b38:	fe5212e3          	bne	tp,t0,1b1c <test_17+0x8>

00001b3c <test_18>:
    1b3c:	01200e13          	li	t3,18
    1b40:	00000213          	li	tp,0
    1b44:	fff00093          	li	ra,-1
    1b48:	00000113          	li	sp,0
    1b4c:	1020d063          	ble	sp,ra,1c4c <fail>
    1b50:	00120213          	addi	tp,tp,1 # 1 <__boot_address-0x17f>
    1b54:	00200293          	li	t0,2
    1b58:	fe5216e3          	bne	tp,t0,1b44 <test_18+0x8>

00001b5c <test_19>:
    1b5c:	01300e13          	li	t3,19
    1b60:	00000213          	li	tp,0
    1b64:	fff00093          	li	ra,-1
    1b68:	00000113          	li	sp,0
    1b6c:	00000013          	nop
    1b70:	0c20de63          	ble	sp,ra,1c4c <fail>
    1b74:	00120213          	addi	tp,tp,1 # 1 <__boot_address-0x17f>
    1b78:	00200293          	li	t0,2
    1b7c:	fe5214e3          	bne	tp,t0,1b64 <test_19+0x8>

00001b80 <test_20>:
    1b80:	01400e13          	li	t3,20
    1b84:	00000213          	li	tp,0
    1b88:	fff00093          	li	ra,-1
    1b8c:	00000113          	li	sp,0
    1b90:	00000013          	nop
    1b94:	00000013          	nop
    1b98:	0a20da63          	ble	sp,ra,1c4c <fail>
    1b9c:	00120213          	addi	tp,tp,1 # 1 <__boot_address-0x17f>
    1ba0:	00200293          	li	t0,2
    1ba4:	fe5212e3          	bne	tp,t0,1b88 <test_20+0x8>

00001ba8 <test_21>:
    1ba8:	01500e13          	li	t3,21
    1bac:	00000213          	li	tp,0
    1bb0:	fff00093          	li	ra,-1
    1bb4:	00000013          	nop
    1bb8:	00000113          	li	sp,0
    1bbc:	0820d863          	ble	sp,ra,1c4c <fail>
    1bc0:	00120213          	addi	tp,tp,1 # 1 <__boot_address-0x17f>
    1bc4:	00200293          	li	t0,2
    1bc8:	fe5214e3          	bne	tp,t0,1bb0 <test_21+0x8>

00001bcc <test_22>:
    1bcc:	01600e13          	li	t3,22
    1bd0:	00000213          	li	tp,0
    1bd4:	fff00093          	li	ra,-1
    1bd8:	00000013          	nop
    1bdc:	00000113          	li	sp,0
    1be0:	00000013          	nop
    1be4:	0620d463          	ble	sp,ra,1c4c <fail>
    1be8:	00120213          	addi	tp,tp,1 # 1 <__boot_address-0x17f>
    1bec:	00200293          	li	t0,2
    1bf0:	fe5212e3          	bne	tp,t0,1bd4 <test_22+0x8>

00001bf4 <test_23>:
    1bf4:	01700e13          	li	t3,23
    1bf8:	00000213          	li	tp,0
    1bfc:	fff00093          	li	ra,-1
    1c00:	00000013          	nop
    1c04:	00000013          	nop
    1c08:	00000113          	li	sp,0
    1c0c:	0420d063          	ble	sp,ra,1c4c <fail>
    1c10:	00120213          	addi	tp,tp,1 # 1 <__boot_address-0x17f>
    1c14:	00200293          	li	t0,2
    1c18:	fe5212e3          	bne	tp,t0,1bfc <test_23+0x8>

00001c1c <test_24>:
    1c1c:	00100093          	li	ra,1
    1c20:	0000da63          	bgez	ra,1c34 <test_24+0x18>
    1c24:	00108093          	addi	ra,ra,1
    1c28:	00108093          	addi	ra,ra,1
    1c2c:	00108093          	addi	ra,ra,1
    1c30:	00108093          	addi	ra,ra,1
    1c34:	00108093          	addi	ra,ra,1
    1c38:	00108093          	addi	ra,ra,1
    1c3c:	00300e93          	li	t4,3
    1c40:	01800e13          	li	t3,24
    1c44:	01d09463          	bne	ra,t4,1c4c <fail>
    1c48:	03c01a63          	bne	zero,t3,1c7c <pass>

00001c4c <fail>:
    1c4c:	10000537          	lui	a0,0x10000
    1c50:	04500593          	li	a1,69
    1c54:	05200613          	li	a2,82
    1c58:	04f00693          	li	a3,79
    1c5c:	00a00713          	li	a4,10
    1c60:	00b52023          	sw	a1,0(a0) # 10000000 <end+0xfff49c0>
    1c64:	00c52023          	sw	a2,0(a0)
    1c68:	00c52023          	sw	a2,0(a0)
    1c6c:	00d52023          	sw	a3,0(a0)
    1c70:	00c52023          	sw	a2,0(a0)
    1c74:	00e52023          	sw	a4,0(a0)
    1c78:	00100073          	ebreak

00001c7c <pass>:
    1c7c:	10000537          	lui	a0,0x10000
    1c80:	04f00593          	li	a1,79
    1c84:	04b00613          	li	a2,75
    1c88:	00a00693          	li	a3,10
    1c8c:	00b52023          	sw	a1,0(a0) # 10000000 <end+0xfff49c0>
    1c90:	00c52023          	sw	a2,0(a0)
    1c94:	00d52023          	sw	a3,0(a0)
    1c98:	000f0113          	mv	sp,t5
    1c9c:	ffc12183          	lw	gp,-4(sp)
    1ca0:	ff812083          	lw	ra,-8(sp)
    1ca4:	e0cfe06f          	j	2b0 <bge_ret>

00001ca8 <bgeu>:
    1ca8:	00010f13          	mv	t5,sp
    1cac:	fe312e23          	sw	gp,-4(sp)
    1cb0:	fe112c23          	sw	ra,-8(sp)
    1cb4:	0000b537          	lui	a0,0xb
    1cb8:	10850513          	addi	a0,a0,264 # b108 <bgeu_data>
    1cbc:	10000637          	lui	a2,0x10000

00001cc0 <.prname_next>:
    1cc0:	00050583          	lb	a1,0(a0)
    1cc4:	00058863          	beqz	a1,1cd4 <.prname_done>
    1cc8:	00b62023          	sw	a1,0(a2) # 10000000 <end+0xfff49c0>
    1ccc:	00150513          	addi	a0,a0,1
    1cd0:	ff1ff06f          	j	1cc0 <.prname_next>

00001cd4 <.prname_done>:
    1cd4:	02e00593          	li	a1,46
    1cd8:	00b62023          	sw	a1,0(a2)
    1cdc:	00b62023          	sw	a1,0(a2)

00001ce0 <test_2>:
    1ce0:	00200e13          	li	t3,2
    1ce4:	00000093          	li	ra,0
    1ce8:	00000113          	li	sp,0
    1cec:	0020f663          	bleu	sp,ra,1cf8 <test_2+0x18>
    1cf0:	35c01263          	bne	zero,t3,2034 <fail>
    1cf4:	01c01663          	bne	zero,t3,1d00 <test_3>
    1cf8:	fe20fee3          	bleu	sp,ra,1cf4 <test_2+0x14>
    1cfc:	33c01c63          	bne	zero,t3,2034 <fail>

00001d00 <test_3>:
    1d00:	00300e13          	li	t3,3
    1d04:	00100093          	li	ra,1
    1d08:	00100113          	li	sp,1
    1d0c:	0020f663          	bleu	sp,ra,1d18 <test_3+0x18>
    1d10:	33c01263          	bne	zero,t3,2034 <fail>
    1d14:	01c01663          	bne	zero,t3,1d20 <test_4>
    1d18:	fe20fee3          	bleu	sp,ra,1d14 <test_3+0x14>
    1d1c:	31c01c63          	bne	zero,t3,2034 <fail>

00001d20 <test_4>:
    1d20:	00400e13          	li	t3,4
    1d24:	fff00093          	li	ra,-1
    1d28:	fff00113          	li	sp,-1
    1d2c:	0020f663          	bleu	sp,ra,1d38 <test_4+0x18>
    1d30:	31c01263          	bne	zero,t3,2034 <fail>
    1d34:	01c01663          	bne	zero,t3,1d40 <test_5>
    1d38:	fe20fee3          	bleu	sp,ra,1d34 <test_4+0x14>
    1d3c:	2fc01c63          	bne	zero,t3,2034 <fail>

00001d40 <test_5>:
    1d40:	00500e13          	li	t3,5
    1d44:	00100093          	li	ra,1
    1d48:	00000113          	li	sp,0
    1d4c:	0020f663          	bleu	sp,ra,1d58 <test_5+0x18>
    1d50:	2fc01263          	bne	zero,t3,2034 <fail>
    1d54:	01c01663          	bne	zero,t3,1d60 <test_6>
    1d58:	fe20fee3          	bleu	sp,ra,1d54 <test_5+0x14>
    1d5c:	2dc01c63          	bne	zero,t3,2034 <fail>

00001d60 <test_6>:
    1d60:	00600e13          	li	t3,6
    1d64:	fff00093          	li	ra,-1
    1d68:	ffe00113          	li	sp,-2
    1d6c:	0020f663          	bleu	sp,ra,1d78 <test_6+0x18>
    1d70:	2dc01263          	bne	zero,t3,2034 <fail>
    1d74:	01c01663          	bne	zero,t3,1d80 <test_7>
    1d78:	fe20fee3          	bleu	sp,ra,1d74 <test_6+0x14>
    1d7c:	2bc01c63          	bne	zero,t3,2034 <fail>

00001d80 <test_7>:
    1d80:	00700e13          	li	t3,7
    1d84:	fff00093          	li	ra,-1
    1d88:	00000113          	li	sp,0
    1d8c:	0020f663          	bleu	sp,ra,1d98 <test_7+0x18>
    1d90:	2bc01263          	bne	zero,t3,2034 <fail>
    1d94:	01c01663          	bne	zero,t3,1da0 <test_8>
    1d98:	fe20fee3          	bleu	sp,ra,1d94 <test_7+0x14>
    1d9c:	29c01c63          	bne	zero,t3,2034 <fail>

00001da0 <test_8>:
    1da0:	00800e13          	li	t3,8
    1da4:	00000093          	li	ra,0
    1da8:	00100113          	li	sp,1
    1dac:	0020f463          	bleu	sp,ra,1db4 <test_8+0x14>
    1db0:	01c01463          	bne	zero,t3,1db8 <test_8+0x18>
    1db4:	29c01063          	bne	zero,t3,2034 <fail>
    1db8:	fe20fee3          	bleu	sp,ra,1db4 <test_8+0x14>

00001dbc <test_9>:
    1dbc:	00900e13          	li	t3,9
    1dc0:	ffe00093          	li	ra,-2
    1dc4:	fff00113          	li	sp,-1
    1dc8:	0020f463          	bleu	sp,ra,1dd0 <test_9+0x14>
    1dcc:	01c01463          	bne	zero,t3,1dd4 <test_9+0x18>
    1dd0:	27c01263          	bne	zero,t3,2034 <fail>
    1dd4:	fe20fee3          	bleu	sp,ra,1dd0 <test_9+0x14>

00001dd8 <test_10>:
    1dd8:	00a00e13          	li	t3,10
    1ddc:	00000093          	li	ra,0
    1de0:	fff00113          	li	sp,-1
    1de4:	0020f463          	bleu	sp,ra,1dec <test_10+0x14>
    1de8:	01c01463          	bne	zero,t3,1df0 <test_10+0x18>
    1dec:	25c01463          	bne	zero,t3,2034 <fail>
    1df0:	fe20fee3          	bleu	sp,ra,1dec <test_10+0x14>

00001df4 <test_11>:
    1df4:	00b00e13          	li	t3,11
    1df8:	800000b7          	lui	ra,0x80000
    1dfc:	fff08093          	addi	ra,ra,-1 # 7fffffff <end+0x7fff49bf>
    1e00:	80000137          	lui	sp,0x80000
    1e04:	0020f463          	bleu	sp,ra,1e0c <test_11+0x18>
    1e08:	01c01463          	bne	zero,t3,1e10 <test_11+0x1c>
    1e0c:	23c01463          	bne	zero,t3,2034 <fail>
    1e10:	fe20fee3          	bleu	sp,ra,1e0c <test_11+0x18>

00001e14 <test_12>:
    1e14:	00c00e13          	li	t3,12
    1e18:	00000213          	li	tp,0
    1e1c:	f00000b7          	lui	ra,0xf0000
    1e20:	fff08093          	addi	ra,ra,-1 # efffffff <end+0xefff49bf>
    1e24:	f0000137          	lui	sp,0xf0000
    1e28:	2020f663          	bleu	sp,ra,2034 <fail>
    1e2c:	00120213          	addi	tp,tp,1 # 1 <__boot_address-0x17f>
    1e30:	00200293          	li	t0,2
    1e34:	fe5214e3          	bne	tp,t0,1e1c <test_12+0x8>

00001e38 <test_13>:
    1e38:	00d00e13          	li	t3,13
    1e3c:	00000213          	li	tp,0
    1e40:	f00000b7          	lui	ra,0xf0000
    1e44:	fff08093          	addi	ra,ra,-1 # efffffff <end+0xefff49bf>
    1e48:	f0000137          	lui	sp,0xf0000
    1e4c:	00000013          	nop
    1e50:	1e20f263          	bleu	sp,ra,2034 <fail>
    1e54:	00120213          	addi	tp,tp,1 # 1 <__boot_address-0x17f>
    1e58:	00200293          	li	t0,2
    1e5c:	fe5212e3          	bne	tp,t0,1e40 <test_13+0x8>

00001e60 <test_14>:
    1e60:	00e00e13          	li	t3,14
    1e64:	00000213          	li	tp,0
    1e68:	f00000b7          	lui	ra,0xf0000
    1e6c:	fff08093          	addi	ra,ra,-1 # efffffff <end+0xefff49bf>
    1e70:	f0000137          	lui	sp,0xf0000
    1e74:	00000013          	nop
    1e78:	00000013          	nop
    1e7c:	1a20fc63          	bleu	sp,ra,2034 <fail>
    1e80:	00120213          	addi	tp,tp,1 # 1 <__boot_address-0x17f>
    1e84:	00200293          	li	t0,2
    1e88:	fe5210e3          	bne	tp,t0,1e68 <test_14+0x8>

00001e8c <test_15>:
    1e8c:	00f00e13          	li	t3,15
    1e90:	00000213          	li	tp,0
    1e94:	f00000b7          	lui	ra,0xf0000
    1e98:	fff08093          	addi	ra,ra,-1 # efffffff <end+0xefff49bf>
    1e9c:	00000013          	nop
    1ea0:	f0000137          	lui	sp,0xf0000
    1ea4:	1820f863          	bleu	sp,ra,2034 <fail>
    1ea8:	00120213          	addi	tp,tp,1 # 1 <__boot_address-0x17f>
    1eac:	00200293          	li	t0,2
    1eb0:	fe5212e3          	bne	tp,t0,1e94 <test_15+0x8>

00001eb4 <test_16>:
    1eb4:	01000e13          	li	t3,16
    1eb8:	00000213          	li	tp,0
    1ebc:	f00000b7          	lui	ra,0xf0000
    1ec0:	fff08093          	addi	ra,ra,-1 # efffffff <end+0xefff49bf>
    1ec4:	00000013          	nop
    1ec8:	f0000137          	lui	sp,0xf0000
    1ecc:	00000013          	nop
    1ed0:	1620f263          	bleu	sp,ra,2034 <fail>
    1ed4:	00120213          	addi	tp,tp,1 # 1 <__boot_address-0x17f>
    1ed8:	00200293          	li	t0,2
    1edc:	fe5210e3          	bne	tp,t0,1ebc <test_16+0x8>

00001ee0 <test_17>:
    1ee0:	01100e13          	li	t3,17
    1ee4:	00000213          	li	tp,0
    1ee8:	f00000b7          	lui	ra,0xf0000
    1eec:	fff08093          	addi	ra,ra,-1 # efffffff <end+0xefff49bf>
    1ef0:	00000013          	nop
    1ef4:	00000013          	nop
    1ef8:	f0000137          	lui	sp,0xf0000
    1efc:	1220fc63          	bleu	sp,ra,2034 <fail>
    1f00:	00120213          	addi	tp,tp,1 # 1 <__boot_address-0x17f>
    1f04:	00200293          	li	t0,2
    1f08:	fe5210e3          	bne	tp,t0,1ee8 <test_17+0x8>

00001f0c <test_18>:
    1f0c:	01200e13          	li	t3,18
    1f10:	00000213          	li	tp,0
    1f14:	f00000b7          	lui	ra,0xf0000
    1f18:	fff08093          	addi	ra,ra,-1 # efffffff <end+0xefff49bf>
    1f1c:	f0000137          	lui	sp,0xf0000
    1f20:	1020fa63          	bleu	sp,ra,2034 <fail>
    1f24:	00120213          	addi	tp,tp,1 # 1 <__boot_address-0x17f>
    1f28:	00200293          	li	t0,2
    1f2c:	fe5214e3          	bne	tp,t0,1f14 <test_18+0x8>

00001f30 <test_19>:
    1f30:	01300e13          	li	t3,19
    1f34:	00000213          	li	tp,0
    1f38:	f00000b7          	lui	ra,0xf0000
    1f3c:	fff08093          	addi	ra,ra,-1 # efffffff <end+0xefff49bf>
    1f40:	f0000137          	lui	sp,0xf0000
    1f44:	00000013          	nop
    1f48:	0e20f663          	bleu	sp,ra,2034 <fail>
    1f4c:	00120213          	addi	tp,tp,1 # 1 <__boot_address-0x17f>
    1f50:	00200293          	li	t0,2
    1f54:	fe5212e3          	bne	tp,t0,1f38 <test_19+0x8>

00001f58 <test_20>:
    1f58:	01400e13          	li	t3,20
    1f5c:	00000213          	li	tp,0
    1f60:	f00000b7          	lui	ra,0xf0000
    1f64:	fff08093          	addi	ra,ra,-1 # efffffff <end+0xefff49bf>
    1f68:	f0000137          	lui	sp,0xf0000
    1f6c:	00000013          	nop
    1f70:	00000013          	nop
    1f74:	0c20f063          	bleu	sp,ra,2034 <fail>
    1f78:	00120213          	addi	tp,tp,1 # 1 <__boot_address-0x17f>
    1f7c:	00200293          	li	t0,2
    1f80:	fe5210e3          	bne	tp,t0,1f60 <test_20+0x8>

00001f84 <test_21>:
    1f84:	01500e13          	li	t3,21
    1f88:	00000213          	li	tp,0
    1f8c:	f00000b7          	lui	ra,0xf0000
    1f90:	fff08093          	addi	ra,ra,-1 # efffffff <end+0xefff49bf>
    1f94:	00000013          	nop
    1f98:	f0000137          	lui	sp,0xf0000
    1f9c:	0820fc63          	bleu	sp,ra,2034 <fail>
    1fa0:	00120213          	addi	tp,tp,1 # 1 <__boot_address-0x17f>
    1fa4:	00200293          	li	t0,2
    1fa8:	fe5212e3          	bne	tp,t0,1f8c <test_21+0x8>

00001fac <test_22>:
    1fac:	01600e13          	li	t3,22
    1fb0:	00000213          	li	tp,0
    1fb4:	f00000b7          	lui	ra,0xf0000
    1fb8:	fff08093          	addi	ra,ra,-1 # efffffff <end+0xefff49bf>
    1fbc:	00000013          	nop
    1fc0:	f0000137          	lui	sp,0xf0000
    1fc4:	00000013          	nop
    1fc8:	0620f663          	bleu	sp,ra,2034 <fail>
    1fcc:	00120213          	addi	tp,tp,1 # 1 <__boot_address-0x17f>
    1fd0:	00200293          	li	t0,2
    1fd4:	fe5210e3          	bne	tp,t0,1fb4 <test_22+0x8>

00001fd8 <test_23>:
    1fd8:	01700e13          	li	t3,23
    1fdc:	00000213          	li	tp,0
    1fe0:	f00000b7          	lui	ra,0xf0000
    1fe4:	fff08093          	addi	ra,ra,-1 # efffffff <end+0xefff49bf>
    1fe8:	00000013          	nop
    1fec:	00000013          	nop
    1ff0:	f0000137          	lui	sp,0xf0000
    1ff4:	0420f063          	bleu	sp,ra,2034 <fail>
    1ff8:	00120213          	addi	tp,tp,1 # 1 <__boot_address-0x17f>
    1ffc:	00200293          	li	t0,2
    2000:	fe5210e3          	bne	tp,t0,1fe0 <test_23+0x8>

00002004 <test_24>:
    2004:	00100093          	li	ra,1
    2008:	0000fa63          	bleu	zero,ra,201c <test_24+0x18>
    200c:	00108093          	addi	ra,ra,1
    2010:	00108093          	addi	ra,ra,1
    2014:	00108093          	addi	ra,ra,1
    2018:	00108093          	addi	ra,ra,1
    201c:	00108093          	addi	ra,ra,1
    2020:	00108093          	addi	ra,ra,1
    2024:	00300e93          	li	t4,3
    2028:	01800e13          	li	t3,24
    202c:	01d09463          	bne	ra,t4,2034 <fail>
    2030:	03c01a63          	bne	zero,t3,2064 <pass>

00002034 <fail>:
    2034:	10000537          	lui	a0,0x10000
    2038:	04500593          	li	a1,69
    203c:	05200613          	li	a2,82
    2040:	04f00693          	li	a3,79
    2044:	00a00713          	li	a4,10
    2048:	00b52023          	sw	a1,0(a0) # 10000000 <end+0xfff49c0>
    204c:	00c52023          	sw	a2,0(a0)
    2050:	00c52023          	sw	a2,0(a0)
    2054:	00d52023          	sw	a3,0(a0)
    2058:	00c52023          	sw	a2,0(a0)
    205c:	00e52023          	sw	a4,0(a0)
    2060:	00100073          	ebreak

00002064 <pass>:
    2064:	10000537          	lui	a0,0x10000
    2068:	04f00593          	li	a1,79
    206c:	04b00613          	li	a2,75
    2070:	00a00693          	li	a3,10
    2074:	00b52023          	sw	a1,0(a0) # 10000000 <end+0xfff49c0>
    2078:	00c52023          	sw	a2,0(a0)
    207c:	00d52023          	sw	a3,0(a0)
    2080:	000f0113          	mv	sp,t5
    2084:	ffc12183          	lw	gp,-4(sp) # effffffc <end+0xefff49bc>
    2088:	ff812083          	lw	ra,-8(sp)
    208c:	a34fe06f          	j	2c0 <bgeu_ret>

00002090 <blt>:
    2090:	00010f13          	mv	t5,sp
    2094:	fe312e23          	sw	gp,-4(sp)
    2098:	fe112c23          	sw	ra,-8(sp)
    209c:	0000b537          	lui	a0,0xb
    20a0:	12c50513          	addi	a0,a0,300 # b12c <blt_data>
    20a4:	10000637          	lui	a2,0x10000

000020a8 <.prname_next>:
    20a8:	00050583          	lb	a1,0(a0)
    20ac:	00058863          	beqz	a1,20bc <.prname_done>
    20b0:	00b62023          	sw	a1,0(a2) # 10000000 <end+0xfff49c0>
    20b4:	00150513          	addi	a0,a0,1
    20b8:	ff1ff06f          	j	20a8 <.prname_next>

000020bc <.prname_done>:
    20bc:	02e00593          	li	a1,46
    20c0:	00b62023          	sw	a1,0(a2)
    20c4:	00b62023          	sw	a1,0(a2)

000020c8 <test_2>:
    20c8:	00200e13          	li	t3,2
    20cc:	00000093          	li	ra,0
    20d0:	00100113          	li	sp,1
    20d4:	0020c663          	blt	ra,sp,20e0 <test_2+0x18>
    20d8:	2bc01863          	bne	zero,t3,2388 <fail>
    20dc:	01c01663          	bne	zero,t3,20e8 <test_3>
    20e0:	fe20cee3          	blt	ra,sp,20dc <test_2+0x14>
    20e4:	2bc01263          	bne	zero,t3,2388 <fail>

000020e8 <test_3>:
    20e8:	00300e13          	li	t3,3
    20ec:	fff00093          	li	ra,-1
    20f0:	00100113          	li	sp,1
    20f4:	0020c663          	blt	ra,sp,2100 <test_3+0x18>
    20f8:	29c01863          	bne	zero,t3,2388 <fail>
    20fc:	01c01663          	bne	zero,t3,2108 <test_4>
    2100:	fe20cee3          	blt	ra,sp,20fc <test_3+0x14>
    2104:	29c01263          	bne	zero,t3,2388 <fail>

00002108 <test_4>:
    2108:	00400e13          	li	t3,4
    210c:	ffe00093          	li	ra,-2
    2110:	fff00113          	li	sp,-1
    2114:	0020c663          	blt	ra,sp,2120 <test_4+0x18>
    2118:	27c01863          	bne	zero,t3,2388 <fail>
    211c:	01c01663          	bne	zero,t3,2128 <test_5>
    2120:	fe20cee3          	blt	ra,sp,211c <test_4+0x14>
    2124:	27c01263          	bne	zero,t3,2388 <fail>

00002128 <test_5>:
    2128:	00500e13          	li	t3,5
    212c:	00100093          	li	ra,1
    2130:	00000113          	li	sp,0
    2134:	0020c463          	blt	ra,sp,213c <test_5+0x14>
    2138:	01c01463          	bne	zero,t3,2140 <test_5+0x18>
    213c:	25c01663          	bne	zero,t3,2388 <fail>
    2140:	fe20cee3          	blt	ra,sp,213c <test_5+0x14>

00002144 <test_6>:
    2144:	00600e13          	li	t3,6
    2148:	00100093          	li	ra,1
    214c:	fff00113          	li	sp,-1
    2150:	0020c463          	blt	ra,sp,2158 <test_6+0x14>
    2154:	01c01463          	bne	zero,t3,215c <test_6+0x18>
    2158:	23c01863          	bne	zero,t3,2388 <fail>
    215c:	fe20cee3          	blt	ra,sp,2158 <test_6+0x14>

00002160 <test_7>:
    2160:	00700e13          	li	t3,7
    2164:	fff00093          	li	ra,-1
    2168:	ffe00113          	li	sp,-2
    216c:	0020c463          	blt	ra,sp,2174 <test_7+0x14>
    2170:	01c01463          	bne	zero,t3,2178 <test_7+0x18>
    2174:	21c01a63          	bne	zero,t3,2388 <fail>
    2178:	fe20cee3          	blt	ra,sp,2174 <test_7+0x14>

0000217c <test_8>:
    217c:	00800e13          	li	t3,8
    2180:	00100093          	li	ra,1
    2184:	ffe00113          	li	sp,-2
    2188:	0020c463          	blt	ra,sp,2190 <test_8+0x14>
    218c:	01c01463          	bne	zero,t3,2194 <test_8+0x18>
    2190:	1fc01c63          	bne	zero,t3,2388 <fail>
    2194:	fe20cee3          	blt	ra,sp,2190 <test_8+0x14>

00002198 <test_9>:
    2198:	00900e13          	li	t3,9
    219c:	00000213          	li	tp,0
    21a0:	00000093          	li	ra,0
    21a4:	fff00113          	li	sp,-1
    21a8:	1e20c063          	blt	ra,sp,2388 <fail>
    21ac:	00120213          	addi	tp,tp,1 # 1 <__boot_address-0x17f>
    21b0:	00200293          	li	t0,2
    21b4:	fe5216e3          	bne	tp,t0,21a0 <test_9+0x8>

000021b8 <test_10>:
    21b8:	00a00e13          	li	t3,10
    21bc:	00000213          	li	tp,0
    21c0:	00000093          	li	ra,0
    21c4:	fff00113          	li	sp,-1
    21c8:	00000013          	nop
    21cc:	1a20ce63          	blt	ra,sp,2388 <fail>
    21d0:	00120213          	addi	tp,tp,1 # 1 <__boot_address-0x17f>
    21d4:	00200293          	li	t0,2
    21d8:	fe5214e3          	bne	tp,t0,21c0 <test_10+0x8>

000021dc <test_11>:
    21dc:	00b00e13          	li	t3,11
    21e0:	00000213          	li	tp,0
    21e4:	00000093          	li	ra,0
    21e8:	fff00113          	li	sp,-1
    21ec:	00000013          	nop
    21f0:	00000013          	nop
    21f4:	1820ca63          	blt	ra,sp,2388 <fail>
    21f8:	00120213          	addi	tp,tp,1 # 1 <__boot_address-0x17f>
    21fc:	00200293          	li	t0,2
    2200:	fe5212e3          	bne	tp,t0,21e4 <test_11+0x8>

00002204 <test_12>:
    2204:	00c00e13          	li	t3,12
    2208:	00000213          	li	tp,0
    220c:	00000093          	li	ra,0
    2210:	00000013          	nop
    2214:	fff00113          	li	sp,-1
    2218:	1620c863          	blt	ra,sp,2388 <fail>
    221c:	00120213          	addi	tp,tp,1 # 1 <__boot_address-0x17f>
    2220:	00200293          	li	t0,2
    2224:	fe5214e3          	bne	tp,t0,220c <test_12+0x8>

00002228 <test_13>:
    2228:	00d00e13          	li	t3,13
    222c:	00000213          	li	tp,0
    2230:	00000093          	li	ra,0
    2234:	00000013          	nop
    2238:	fff00113          	li	sp,-1
    223c:	00000013          	nop
    2240:	1420c463          	blt	ra,sp,2388 <fail>
    2244:	00120213          	addi	tp,tp,1 # 1 <__boot_address-0x17f>
    2248:	00200293          	li	t0,2
    224c:	fe5212e3          	bne	tp,t0,2230 <test_13+0x8>

00002250 <test_14>:
    2250:	00e00e13          	li	t3,14
    2254:	00000213          	li	tp,0
    2258:	00000093          	li	ra,0
    225c:	00000013          	nop
    2260:	00000013          	nop
    2264:	fff00113          	li	sp,-1
    2268:	1220c063          	blt	ra,sp,2388 <fail>
    226c:	00120213          	addi	tp,tp,1 # 1 <__boot_address-0x17f>
    2270:	00200293          	li	t0,2
    2274:	fe5212e3          	bne	tp,t0,2258 <test_14+0x8>

00002278 <test_15>:
    2278:	00f00e13          	li	t3,15
    227c:	00000213          	li	tp,0
    2280:	00000093          	li	ra,0
    2284:	fff00113          	li	sp,-1
    2288:	1020c063          	blt	ra,sp,2388 <fail>
    228c:	00120213          	addi	tp,tp,1 # 1 <__boot_address-0x17f>
    2290:	00200293          	li	t0,2
    2294:	fe5216e3          	bne	tp,t0,2280 <test_15+0x8>

00002298 <test_16>:
    2298:	01000e13          	li	t3,16
    229c:	00000213          	li	tp,0
    22a0:	00000093          	li	ra,0
    22a4:	fff00113          	li	sp,-1
    22a8:	00000013          	nop
    22ac:	0c20ce63          	blt	ra,sp,2388 <fail>
    22b0:	00120213          	addi	tp,tp,1 # 1 <__boot_address-0x17f>
    22b4:	00200293          	li	t0,2
    22b8:	fe5214e3          	bne	tp,t0,22a0 <test_16+0x8>

000022bc <test_17>:
    22bc:	01100e13          	li	t3,17
    22c0:	00000213          	li	tp,0
    22c4:	00000093          	li	ra,0
    22c8:	fff00113          	li	sp,-1
    22cc:	00000013          	nop
    22d0:	00000013          	nop
    22d4:	0a20ca63          	blt	ra,sp,2388 <fail>
    22d8:	00120213          	addi	tp,tp,1 # 1 <__boot_address-0x17f>
    22dc:	00200293          	li	t0,2
    22e0:	fe5212e3          	bne	tp,t0,22c4 <test_17+0x8>

000022e4 <test_18>:
    22e4:	01200e13          	li	t3,18
    22e8:	00000213          	li	tp,0
    22ec:	00000093          	li	ra,0
    22f0:	00000013          	nop
    22f4:	fff00113          	li	sp,-1
    22f8:	0820c863          	blt	ra,sp,2388 <fail>
    22fc:	00120213          	addi	tp,tp,1 # 1 <__boot_address-0x17f>
    2300:	00200293          	li	t0,2
    2304:	fe5214e3          	bne	tp,t0,22ec <test_18+0x8>

00002308 <test_19>:
    2308:	01300e13          	li	t3,19
    230c:	00000213          	li	tp,0
    2310:	00000093          	li	ra,0
    2314:	00000013          	nop
    2318:	fff00113          	li	sp,-1
    231c:	00000013          	nop
    2320:	0620c463          	blt	ra,sp,2388 <fail>
    2324:	00120213          	addi	tp,tp,1 # 1 <__boot_address-0x17f>
    2328:	00200293          	li	t0,2
    232c:	fe5212e3          	bne	tp,t0,2310 <test_19+0x8>

00002330 <test_20>:
    2330:	01400e13          	li	t3,20
    2334:	00000213          	li	tp,0
    2338:	00000093          	li	ra,0
    233c:	00000013          	nop
    2340:	00000013          	nop
    2344:	fff00113          	li	sp,-1
    2348:	0420c063          	blt	ra,sp,2388 <fail>
    234c:	00120213          	addi	tp,tp,1 # 1 <__boot_address-0x17f>
    2350:	00200293          	li	t0,2
    2354:	fe5212e3          	bne	tp,t0,2338 <test_20+0x8>

00002358 <test_21>:
    2358:	00100093          	li	ra,1
    235c:	00104a63          	bgtz	ra,2370 <test_21+0x18>
    2360:	00108093          	addi	ra,ra,1
    2364:	00108093          	addi	ra,ra,1
    2368:	00108093          	addi	ra,ra,1
    236c:	00108093          	addi	ra,ra,1
    2370:	00108093          	addi	ra,ra,1
    2374:	00108093          	addi	ra,ra,1
    2378:	00300e93          	li	t4,3
    237c:	01500e13          	li	t3,21
    2380:	01d09463          	bne	ra,t4,2388 <fail>
    2384:	03c01a63          	bne	zero,t3,23b8 <pass>

00002388 <fail>:
    2388:	10000537          	lui	a0,0x10000
    238c:	04500593          	li	a1,69
    2390:	05200613          	li	a2,82
    2394:	04f00693          	li	a3,79
    2398:	00a00713          	li	a4,10
    239c:	00b52023          	sw	a1,0(a0) # 10000000 <end+0xfff49c0>
    23a0:	00c52023          	sw	a2,0(a0)
    23a4:	00c52023          	sw	a2,0(a0)
    23a8:	00d52023          	sw	a3,0(a0)
    23ac:	00c52023          	sw	a2,0(a0)
    23b0:	00e52023          	sw	a4,0(a0)
    23b4:	00100073          	ebreak

000023b8 <pass>:
    23b8:	10000537          	lui	a0,0x10000
    23bc:	04f00593          	li	a1,79
    23c0:	04b00613          	li	a2,75
    23c4:	00a00693          	li	a3,10
    23c8:	00b52023          	sw	a1,0(a0) # 10000000 <end+0xfff49c0>
    23cc:	00c52023          	sw	a2,0(a0)
    23d0:	00d52023          	sw	a3,0(a0)
    23d4:	000f0113          	mv	sp,t5
    23d8:	ffc12183          	lw	gp,-4(sp)
    23dc:	ff812083          	lw	ra,-8(sp)
    23e0:	ec9fd06f          	j	2a8 <blt_ret>

000023e4 <bltu>:
    23e4:	00010f13          	mv	t5,sp
    23e8:	fe312e23          	sw	gp,-4(sp)
    23ec:	fe112c23          	sw	ra,-8(sp)
    23f0:	0000b537          	lui	a0,0xb
    23f4:	14c50513          	addi	a0,a0,332 # b14c <bltu_data>
    23f8:	10000637          	lui	a2,0x10000

000023fc <.prname_next>:
    23fc:	00050583          	lb	a1,0(a0)
    2400:	00058863          	beqz	a1,2410 <.prname_done>
    2404:	00b62023          	sw	a1,0(a2) # 10000000 <end+0xfff49c0>
    2408:	00150513          	addi	a0,a0,1
    240c:	ff1ff06f          	j	23fc <.prname_next>

00002410 <.prname_done>:
    2410:	02e00593          	li	a1,46
    2414:	00b62023          	sw	a1,0(a2)
    2418:	00b62023          	sw	a1,0(a2)

0000241c <test_2>:
    241c:	00200e13          	li	t3,2
    2420:	00000093          	li	ra,0
    2424:	00100113          	li	sp,1
    2428:	0020e663          	bltu	ra,sp,2434 <test_2+0x18>
    242c:	2fc01263          	bne	zero,t3,2710 <fail>
    2430:	01c01663          	bne	zero,t3,243c <test_3>
    2434:	fe20eee3          	bltu	ra,sp,2430 <test_2+0x14>
    2438:	2dc01c63          	bne	zero,t3,2710 <fail>

0000243c <test_3>:
    243c:	00300e13          	li	t3,3
    2440:	ffe00093          	li	ra,-2
    2444:	fff00113          	li	sp,-1
    2448:	0020e663          	bltu	ra,sp,2454 <test_3+0x18>
    244c:	2dc01263          	bne	zero,t3,2710 <fail>
    2450:	01c01663          	bne	zero,t3,245c <test_4>
    2454:	fe20eee3          	bltu	ra,sp,2450 <test_3+0x14>
    2458:	2bc01c63          	bne	zero,t3,2710 <fail>

0000245c <test_4>:
    245c:	00400e13          	li	t3,4
    2460:	00000093          	li	ra,0
    2464:	fff00113          	li	sp,-1
    2468:	0020e663          	bltu	ra,sp,2474 <test_4+0x18>
    246c:	2bc01263          	bne	zero,t3,2710 <fail>
    2470:	01c01663          	bne	zero,t3,247c <test_5>
    2474:	fe20eee3          	bltu	ra,sp,2470 <test_4+0x14>
    2478:	29c01c63          	bne	zero,t3,2710 <fail>

0000247c <test_5>:
    247c:	00500e13          	li	t3,5
    2480:	00100093          	li	ra,1
    2484:	00000113          	li	sp,0
    2488:	0020e463          	bltu	ra,sp,2490 <test_5+0x14>
    248c:	01c01463          	bne	zero,t3,2494 <test_5+0x18>
    2490:	29c01063          	bne	zero,t3,2710 <fail>
    2494:	fe20eee3          	bltu	ra,sp,2490 <test_5+0x14>

00002498 <test_6>:
    2498:	00600e13          	li	t3,6
    249c:	fff00093          	li	ra,-1
    24a0:	ffe00113          	li	sp,-2
    24a4:	0020e463          	bltu	ra,sp,24ac <test_6+0x14>
    24a8:	01c01463          	bne	zero,t3,24b0 <test_6+0x18>
    24ac:	27c01263          	bne	zero,t3,2710 <fail>
    24b0:	fe20eee3          	bltu	ra,sp,24ac <test_6+0x14>

000024b4 <test_7>:
    24b4:	00700e13          	li	t3,7
    24b8:	fff00093          	li	ra,-1
    24bc:	00000113          	li	sp,0
    24c0:	0020e463          	bltu	ra,sp,24c8 <test_7+0x14>
    24c4:	01c01463          	bne	zero,t3,24cc <test_7+0x18>
    24c8:	25c01463          	bne	zero,t3,2710 <fail>
    24cc:	fe20eee3          	bltu	ra,sp,24c8 <test_7+0x14>

000024d0 <test_8>:
    24d0:	00800e13          	li	t3,8
    24d4:	800000b7          	lui	ra,0x80000
    24d8:	80000137          	lui	sp,0x80000
    24dc:	fff10113          	addi	sp,sp,-1 # 7fffffff <end+0x7fff49bf>
    24e0:	0020e463          	bltu	ra,sp,24e8 <test_8+0x18>
    24e4:	01c01463          	bne	zero,t3,24ec <test_8+0x1c>
    24e8:	23c01463          	bne	zero,t3,2710 <fail>
    24ec:	fe20eee3          	bltu	ra,sp,24e8 <test_8+0x18>

000024f0 <test_9>:
    24f0:	00900e13          	li	t3,9
    24f4:	00000213          	li	tp,0
    24f8:	f00000b7          	lui	ra,0xf0000
    24fc:	f0000137          	lui	sp,0xf0000
    2500:	fff10113          	addi	sp,sp,-1 # efffffff <end+0xefff49bf>
    2504:	2020e663          	bltu	ra,sp,2710 <fail>
    2508:	00120213          	addi	tp,tp,1 # 1 <__boot_address-0x17f>
    250c:	00200293          	li	t0,2
    2510:	fe5214e3          	bne	tp,t0,24f8 <test_9+0x8>

00002514 <test_10>:
    2514:	00a00e13          	li	t3,10
    2518:	00000213          	li	tp,0
    251c:	f00000b7          	lui	ra,0xf0000
    2520:	f0000137          	lui	sp,0xf0000
    2524:	fff10113          	addi	sp,sp,-1 # efffffff <end+0xefff49bf>
    2528:	00000013          	nop
    252c:	1e20e263          	bltu	ra,sp,2710 <fail>
    2530:	00120213          	addi	tp,tp,1 # 1 <__boot_address-0x17f>
    2534:	00200293          	li	t0,2
    2538:	fe5212e3          	bne	tp,t0,251c <test_10+0x8>

0000253c <test_11>:
    253c:	00b00e13          	li	t3,11
    2540:	00000213          	li	tp,0
    2544:	f00000b7          	lui	ra,0xf0000
    2548:	f0000137          	lui	sp,0xf0000
    254c:	fff10113          	addi	sp,sp,-1 # efffffff <end+0xefff49bf>
    2550:	00000013          	nop
    2554:	00000013          	nop
    2558:	1a20ec63          	bltu	ra,sp,2710 <fail>
    255c:	00120213          	addi	tp,tp,1 # 1 <__boot_address-0x17f>
    2560:	00200293          	li	t0,2
    2564:	fe5210e3          	bne	tp,t0,2544 <test_11+0x8>

00002568 <test_12>:
    2568:	00c00e13          	li	t3,12
    256c:	00000213          	li	tp,0
    2570:	f00000b7          	lui	ra,0xf0000
    2574:	00000013          	nop
    2578:	f0000137          	lui	sp,0xf0000
    257c:	fff10113          	addi	sp,sp,-1 # efffffff <end+0xefff49bf>
    2580:	1820e863          	bltu	ra,sp,2710 <fail>
    2584:	00120213          	addi	tp,tp,1 # 1 <__boot_address-0x17f>
    2588:	00200293          	li	t0,2
    258c:	fe5212e3          	bne	tp,t0,2570 <test_12+0x8>

00002590 <test_13>:
    2590:	00d00e13          	li	t3,13
    2594:	00000213          	li	tp,0
    2598:	f00000b7          	lui	ra,0xf0000
    259c:	00000013          	nop
    25a0:	f0000137          	lui	sp,0xf0000
    25a4:	fff10113          	addi	sp,sp,-1 # efffffff <end+0xefff49bf>
    25a8:	00000013          	nop
    25ac:	1620e263          	bltu	ra,sp,2710 <fail>
    25b0:	00120213          	addi	tp,tp,1 # 1 <__boot_address-0x17f>
    25b4:	00200293          	li	t0,2
    25b8:	fe5210e3          	bne	tp,t0,2598 <test_13+0x8>

000025bc <test_14>:
    25bc:	00e00e13          	li	t3,14
    25c0:	00000213          	li	tp,0
    25c4:	f00000b7          	lui	ra,0xf0000
    25c8:	00000013          	nop
    25cc:	00000013          	nop
    25d0:	f0000137          	lui	sp,0xf0000
    25d4:	fff10113          	addi	sp,sp,-1 # efffffff <end+0xefff49bf>
    25d8:	1220ec63          	bltu	ra,sp,2710 <fail>
    25dc:	00120213          	addi	tp,tp,1 # 1 <__boot_address-0x17f>
    25e0:	00200293          	li	t0,2
    25e4:	fe5210e3          	bne	tp,t0,25c4 <test_14+0x8>

000025e8 <test_15>:
    25e8:	00f00e13          	li	t3,15
    25ec:	00000213          	li	tp,0
    25f0:	f00000b7          	lui	ra,0xf0000
    25f4:	f0000137          	lui	sp,0xf0000
    25f8:	fff10113          	addi	sp,sp,-1 # efffffff <end+0xefff49bf>
    25fc:	1020ea63          	bltu	ra,sp,2710 <fail>
    2600:	00120213          	addi	tp,tp,1 # 1 <__boot_address-0x17f>
    2604:	00200293          	li	t0,2
    2608:	fe5214e3          	bne	tp,t0,25f0 <test_15+0x8>

0000260c <test_16>:
    260c:	01000e13          	li	t3,16
    2610:	00000213          	li	tp,0
    2614:	f00000b7          	lui	ra,0xf0000
    2618:	f0000137          	lui	sp,0xf0000
    261c:	fff10113          	addi	sp,sp,-1 # efffffff <end+0xefff49bf>
    2620:	00000013          	nop
    2624:	0e20e663          	bltu	ra,sp,2710 <fail>
    2628:	00120213          	addi	tp,tp,1 # 1 <__boot_address-0x17f>
    262c:	00200293          	li	t0,2
    2630:	fe5212e3          	bne	tp,t0,2614 <test_16+0x8>

00002634 <test_17>:
    2634:	01100e13          	li	t3,17
    2638:	00000213          	li	tp,0
    263c:	f00000b7          	lui	ra,0xf0000
    2640:	f0000137          	lui	sp,0xf0000
    2644:	fff10113          	addi	sp,sp,-1 # efffffff <end+0xefff49bf>
    2648:	00000013          	nop
    264c:	00000013          	nop
    2650:	0c20e063          	bltu	ra,sp,2710 <fail>
    2654:	00120213          	addi	tp,tp,1 # 1 <__boot_address-0x17f>
    2658:	00200293          	li	t0,2
    265c:	fe5210e3          	bne	tp,t0,263c <test_17+0x8>

00002660 <test_18>:
    2660:	01200e13          	li	t3,18
    2664:	00000213          	li	tp,0
    2668:	f00000b7          	lui	ra,0xf0000
    266c:	00000013          	nop
    2670:	f0000137          	lui	sp,0xf0000
    2674:	fff10113          	addi	sp,sp,-1 # efffffff <end+0xefff49bf>
    2678:	0820ec63          	bltu	ra,sp,2710 <fail>
    267c:	00120213          	addi	tp,tp,1 # 1 <__boot_address-0x17f>
    2680:	00200293          	li	t0,2
    2684:	fe5212e3          	bne	tp,t0,2668 <test_18+0x8>

00002688 <test_19>:
    2688:	01300e13          	li	t3,19
    268c:	00000213          	li	tp,0
    2690:	f00000b7          	lui	ra,0xf0000
    2694:	00000013          	nop
    2698:	f0000137          	lui	sp,0xf0000
    269c:	fff10113          	addi	sp,sp,-1 # efffffff <end+0xefff49bf>
    26a0:	00000013          	nop
    26a4:	0620e663          	bltu	ra,sp,2710 <fail>
    26a8:	00120213          	addi	tp,tp,1 # 1 <__boot_address-0x17f>
    26ac:	00200293          	li	t0,2
    26b0:	fe5210e3          	bne	tp,t0,2690 <test_19+0x8>

000026b4 <test_20>:
    26b4:	01400e13          	li	t3,20
    26b8:	00000213          	li	tp,0
    26bc:	f00000b7          	lui	ra,0xf0000
    26c0:	00000013          	nop
    26c4:	00000013          	nop
    26c8:	f0000137          	lui	sp,0xf0000
    26cc:	fff10113          	addi	sp,sp,-1 # efffffff <end+0xefff49bf>
    26d0:	0420e063          	bltu	ra,sp,2710 <fail>
    26d4:	00120213          	addi	tp,tp,1 # 1 <__boot_address-0x17f>
    26d8:	00200293          	li	t0,2
    26dc:	fe5210e3          	bne	tp,t0,26bc <test_20+0x8>

000026e0 <test_21>:
    26e0:	00100093          	li	ra,1
    26e4:	00106a63          	bltu	zero,ra,26f8 <test_21+0x18>
    26e8:	00108093          	addi	ra,ra,1 # f0000001 <end+0xefff49c1>
    26ec:	00108093          	addi	ra,ra,1
    26f0:	00108093          	addi	ra,ra,1
    26f4:	00108093          	addi	ra,ra,1
    26f8:	00108093          	addi	ra,ra,1
    26fc:	00108093          	addi	ra,ra,1
    2700:	00300e93          	li	t4,3
    2704:	01500e13          	li	t3,21
    2708:	01d09463          	bne	ra,t4,2710 <fail>
    270c:	03c01a63          	bne	zero,t3,2740 <pass>

00002710 <fail>:
    2710:	10000537          	lui	a0,0x10000
    2714:	04500593          	li	a1,69
    2718:	05200613          	li	a2,82
    271c:	04f00693          	li	a3,79
    2720:	00a00713          	li	a4,10
    2724:	00b52023          	sw	a1,0(a0) # 10000000 <end+0xfff49c0>
    2728:	00c52023          	sw	a2,0(a0)
    272c:	00c52023          	sw	a2,0(a0)
    2730:	00d52023          	sw	a3,0(a0)
    2734:	00c52023          	sw	a2,0(a0)
    2738:	00e52023          	sw	a4,0(a0)
    273c:	00100073          	ebreak

00002740 <pass>:
    2740:	10000537          	lui	a0,0x10000
    2744:	04f00593          	li	a1,79
    2748:	04b00613          	li	a2,75
    274c:	00a00693          	li	a3,10
    2750:	00b52023          	sw	a1,0(a0) # 10000000 <end+0xfff49c0>
    2754:	00c52023          	sw	a2,0(a0)
    2758:	00d52023          	sw	a3,0(a0)
    275c:	000f0113          	mv	sp,t5
    2760:	ffc12183          	lw	gp,-4(sp)
    2764:	ff812083          	lw	ra,-8(sp)
    2768:	b51fd06f          	j	2b8 <bltu_ret>

0000276c <bne>:
    276c:	00010f13          	mv	t5,sp
    2770:	fe312e23          	sw	gp,-4(sp)
    2774:	fe112c23          	sw	ra,-8(sp)
    2778:	0000b537          	lui	a0,0xb
    277c:	17050513          	addi	a0,a0,368 # b170 <bne_data>
    2780:	10000637          	lui	a2,0x10000

00002784 <.prname_next>:
    2784:	00050583          	lb	a1,0(a0)
    2788:	00058863          	beqz	a1,2798 <.prname_done>
    278c:	00b62023          	sw	a1,0(a2) # 10000000 <end+0xfff49c0>
    2790:	00150513          	addi	a0,a0,1
    2794:	ff1ff06f          	j	2784 <.prname_next>

00002798 <.prname_done>:
    2798:	02e00593          	li	a1,46
    279c:	00b62023          	sw	a1,0(a2)
    27a0:	00b62023          	sw	a1,0(a2)

000027a4 <test_2>:
    27a4:	00200e13          	li	t3,2
    27a8:	00000093          	li	ra,0
    27ac:	00100113          	li	sp,1
    27b0:	00209663          	bne	ra,sp,27bc <test_2+0x18>
    27b4:	2bc01a63          	bne	zero,t3,2a68 <fail>
    27b8:	01c01663          	bne	zero,t3,27c4 <test_3>
    27bc:	fe209ee3          	bne	ra,sp,27b8 <test_2+0x14>
    27c0:	2bc01463          	bne	zero,t3,2a68 <fail>

000027c4 <test_3>:
    27c4:	00300e13          	li	t3,3
    27c8:	00100093          	li	ra,1
    27cc:	00000113          	li	sp,0
    27d0:	00209663          	bne	ra,sp,27dc <test_3+0x18>
    27d4:	29c01a63          	bne	zero,t3,2a68 <fail>
    27d8:	01c01663          	bne	zero,t3,27e4 <test_4>
    27dc:	fe209ee3          	bne	ra,sp,27d8 <test_3+0x14>
    27e0:	29c01463          	bne	zero,t3,2a68 <fail>

000027e4 <test_4>:
    27e4:	00400e13          	li	t3,4
    27e8:	fff00093          	li	ra,-1
    27ec:	00100113          	li	sp,1
    27f0:	00209663          	bne	ra,sp,27fc <test_4+0x18>
    27f4:	27c01a63          	bne	zero,t3,2a68 <fail>
    27f8:	01c01663          	bne	zero,t3,2804 <test_5>
    27fc:	fe209ee3          	bne	ra,sp,27f8 <test_4+0x14>
    2800:	27c01463          	bne	zero,t3,2a68 <fail>

00002804 <test_5>:
    2804:	00500e13          	li	t3,5
    2808:	00100093          	li	ra,1
    280c:	fff00113          	li	sp,-1
    2810:	00209663          	bne	ra,sp,281c <test_5+0x18>
    2814:	25c01a63          	bne	zero,t3,2a68 <fail>
    2818:	01c01663          	bne	zero,t3,2824 <test_6>
    281c:	fe209ee3          	bne	ra,sp,2818 <test_5+0x14>
    2820:	25c01463          	bne	zero,t3,2a68 <fail>

00002824 <test_6>:
    2824:	00600e13          	li	t3,6
    2828:	00000093          	li	ra,0
    282c:	00000113          	li	sp,0
    2830:	00209463          	bne	ra,sp,2838 <test_6+0x14>
    2834:	01c01463          	bne	zero,t3,283c <test_6+0x18>
    2838:	23c01863          	bne	zero,t3,2a68 <fail>
    283c:	fe209ee3          	bne	ra,sp,2838 <test_6+0x14>

00002840 <test_7>:
    2840:	00700e13          	li	t3,7
    2844:	00100093          	li	ra,1
    2848:	00100113          	li	sp,1
    284c:	00209463          	bne	ra,sp,2854 <test_7+0x14>
    2850:	01c01463          	bne	zero,t3,2858 <test_7+0x18>
    2854:	21c01a63          	bne	zero,t3,2a68 <fail>
    2858:	fe209ee3          	bne	ra,sp,2854 <test_7+0x14>

0000285c <test_8>:
    285c:	00800e13          	li	t3,8
    2860:	fff00093          	li	ra,-1
    2864:	fff00113          	li	sp,-1
    2868:	00209463          	bne	ra,sp,2870 <test_8+0x14>
    286c:	01c01463          	bne	zero,t3,2874 <test_8+0x18>
    2870:	1fc01c63          	bne	zero,t3,2a68 <fail>
    2874:	fe209ee3          	bne	ra,sp,2870 <test_8+0x14>

00002878 <test_9>:
    2878:	00900e13          	li	t3,9
    287c:	00000213          	li	tp,0
    2880:	00000093          	li	ra,0
    2884:	00000113          	li	sp,0
    2888:	1e209063          	bne	ra,sp,2a68 <fail>
    288c:	00120213          	addi	tp,tp,1 # 1 <__boot_address-0x17f>
    2890:	00200293          	li	t0,2
    2894:	fe5216e3          	bne	tp,t0,2880 <test_9+0x8>

00002898 <test_10>:
    2898:	00a00e13          	li	t3,10
    289c:	00000213          	li	tp,0
    28a0:	00000093          	li	ra,0
    28a4:	00000113          	li	sp,0
    28a8:	00000013          	nop
    28ac:	1a209e63          	bne	ra,sp,2a68 <fail>
    28b0:	00120213          	addi	tp,tp,1 # 1 <__boot_address-0x17f>
    28b4:	00200293          	li	t0,2
    28b8:	fe5214e3          	bne	tp,t0,28a0 <test_10+0x8>

000028bc <test_11>:
    28bc:	00b00e13          	li	t3,11
    28c0:	00000213          	li	tp,0
    28c4:	00000093          	li	ra,0
    28c8:	00000113          	li	sp,0
    28cc:	00000013          	nop
    28d0:	00000013          	nop
    28d4:	18209a63          	bne	ra,sp,2a68 <fail>
    28d8:	00120213          	addi	tp,tp,1 # 1 <__boot_address-0x17f>
    28dc:	00200293          	li	t0,2
    28e0:	fe5212e3          	bne	tp,t0,28c4 <test_11+0x8>

000028e4 <test_12>:
    28e4:	00c00e13          	li	t3,12
    28e8:	00000213          	li	tp,0
    28ec:	00000093          	li	ra,0
    28f0:	00000013          	nop
    28f4:	00000113          	li	sp,0
    28f8:	16209863          	bne	ra,sp,2a68 <fail>
    28fc:	00120213          	addi	tp,tp,1 # 1 <__boot_address-0x17f>
    2900:	00200293          	li	t0,2
    2904:	fe5214e3          	bne	tp,t0,28ec <test_12+0x8>

00002908 <test_13>:
    2908:	00d00e13          	li	t3,13
    290c:	00000213          	li	tp,0
    2910:	00000093          	li	ra,0
    2914:	00000013          	nop
    2918:	00000113          	li	sp,0
    291c:	00000013          	nop
    2920:	14209463          	bne	ra,sp,2a68 <fail>
    2924:	00120213          	addi	tp,tp,1 # 1 <__boot_address-0x17f>
    2928:	00200293          	li	t0,2
    292c:	fe5212e3          	bne	tp,t0,2910 <test_13+0x8>

00002930 <test_14>:
    2930:	00e00e13          	li	t3,14
    2934:	00000213          	li	tp,0
    2938:	00000093          	li	ra,0
    293c:	00000013          	nop
    2940:	00000013          	nop
    2944:	00000113          	li	sp,0
    2948:	12209063          	bne	ra,sp,2a68 <fail>
    294c:	00120213          	addi	tp,tp,1 # 1 <__boot_address-0x17f>
    2950:	00200293          	li	t0,2
    2954:	fe5212e3          	bne	tp,t0,2938 <test_14+0x8>

00002958 <test_15>:
    2958:	00f00e13          	li	t3,15
    295c:	00000213          	li	tp,0
    2960:	00000093          	li	ra,0
    2964:	00000113          	li	sp,0
    2968:	10209063          	bne	ra,sp,2a68 <fail>
    296c:	00120213          	addi	tp,tp,1 # 1 <__boot_address-0x17f>
    2970:	00200293          	li	t0,2
    2974:	fe5216e3          	bne	tp,t0,2960 <test_15+0x8>

00002978 <test_16>:
    2978:	01000e13          	li	t3,16
    297c:	00000213          	li	tp,0
    2980:	00000093          	li	ra,0
    2984:	00000113          	li	sp,0
    2988:	00000013          	nop
    298c:	0c209e63          	bne	ra,sp,2a68 <fail>
    2990:	00120213          	addi	tp,tp,1 # 1 <__boot_address-0x17f>
    2994:	00200293          	li	t0,2
    2998:	fe5214e3          	bne	tp,t0,2980 <test_16+0x8>

0000299c <test_17>:
    299c:	01100e13          	li	t3,17
    29a0:	00000213          	li	tp,0
    29a4:	00000093          	li	ra,0
    29a8:	00000113          	li	sp,0
    29ac:	00000013          	nop
    29b0:	00000013          	nop
    29b4:	0a209a63          	bne	ra,sp,2a68 <fail>
    29b8:	00120213          	addi	tp,tp,1 # 1 <__boot_address-0x17f>
    29bc:	00200293          	li	t0,2
    29c0:	fe5212e3          	bne	tp,t0,29a4 <test_17+0x8>

000029c4 <test_18>:
    29c4:	01200e13          	li	t3,18
    29c8:	00000213          	li	tp,0
    29cc:	00000093          	li	ra,0
    29d0:	00000013          	nop
    29d4:	00000113          	li	sp,0
    29d8:	08209863          	bne	ra,sp,2a68 <fail>
    29dc:	00120213          	addi	tp,tp,1 # 1 <__boot_address-0x17f>
    29e0:	00200293          	li	t0,2
    29e4:	fe5214e3          	bne	tp,t0,29cc <test_18+0x8>

000029e8 <test_19>:
    29e8:	01300e13          	li	t3,19
    29ec:	00000213          	li	tp,0
    29f0:	00000093          	li	ra,0
    29f4:	00000013          	nop
    29f8:	00000113          	li	sp,0
    29fc:	00000013          	nop
    2a00:	06209463          	bne	ra,sp,2a68 <fail>
    2a04:	00120213          	addi	tp,tp,1 # 1 <__boot_address-0x17f>
    2a08:	00200293          	li	t0,2
    2a0c:	fe5212e3          	bne	tp,t0,29f0 <test_19+0x8>

00002a10 <test_20>:
    2a10:	01400e13          	li	t3,20
    2a14:	00000213          	li	tp,0
    2a18:	00000093          	li	ra,0
    2a1c:	00000013          	nop
    2a20:	00000013          	nop
    2a24:	00000113          	li	sp,0
    2a28:	04209063          	bne	ra,sp,2a68 <fail>
    2a2c:	00120213          	addi	tp,tp,1 # 1 <__boot_address-0x17f>
    2a30:	00200293          	li	t0,2
    2a34:	fe5212e3          	bne	tp,t0,2a18 <test_20+0x8>

00002a38 <test_21>:
    2a38:	00100093          	li	ra,1
    2a3c:	00009a63          	bnez	ra,2a50 <test_21+0x18>
    2a40:	00108093          	addi	ra,ra,1
    2a44:	00108093          	addi	ra,ra,1
    2a48:	00108093          	addi	ra,ra,1
    2a4c:	00108093          	addi	ra,ra,1
    2a50:	00108093          	addi	ra,ra,1
    2a54:	00108093          	addi	ra,ra,1
    2a58:	00300e93          	li	t4,3
    2a5c:	01500e13          	li	t3,21
    2a60:	01d09463          	bne	ra,t4,2a68 <fail>
    2a64:	03c01a63          	bne	zero,t3,2a98 <pass>

00002a68 <fail>:
    2a68:	10000537          	lui	a0,0x10000
    2a6c:	04500593          	li	a1,69
    2a70:	05200613          	li	a2,82
    2a74:	04f00693          	li	a3,79
    2a78:	00a00713          	li	a4,10
    2a7c:	00b52023          	sw	a1,0(a0) # 10000000 <end+0xfff49c0>
    2a80:	00c52023          	sw	a2,0(a0)
    2a84:	00c52023          	sw	a2,0(a0)
    2a88:	00d52023          	sw	a3,0(a0)
    2a8c:	00c52023          	sw	a2,0(a0)
    2a90:	00e52023          	sw	a4,0(a0)
    2a94:	00100073          	ebreak

00002a98 <pass>:
    2a98:	10000537          	lui	a0,0x10000
    2a9c:	04f00593          	li	a1,79
    2aa0:	04b00613          	li	a2,75
    2aa4:	00a00693          	li	a3,10
    2aa8:	00b52023          	sw	a1,0(a0) # 10000000 <end+0xfff49c0>
    2aac:	00c52023          	sw	a2,0(a0)
    2ab0:	00d52023          	sw	a3,0(a0)
    2ab4:	000f0113          	mv	sp,t5
    2ab8:	ffc12183          	lw	gp,-4(sp)
    2abc:	ff812083          	lw	ra,-8(sp)
    2ac0:	fe0fd06f          	j	2a0 <bne_ret>

00002ac4 <jalr>:
    2ac4:	00010f13          	mv	t5,sp
    2ac8:	fe312e23          	sw	gp,-4(sp)
    2acc:	fe112c23          	sw	ra,-8(sp)
    2ad0:	0000b537          	lui	a0,0xb
    2ad4:	19050513          	addi	a0,a0,400 # b190 <jalr_data>
    2ad8:	10000637          	lui	a2,0x10000

00002adc <.prname_next>:
    2adc:	00050583          	lb	a1,0(a0)
    2ae0:	00058863          	beqz	a1,2af0 <.prname_done>
    2ae4:	00b62023          	sw	a1,0(a2) # 10000000 <end+0xfff49c0>
    2ae8:	00150513          	addi	a0,a0,1
    2aec:	ff1ff06f          	j	2adc <.prname_next>

00002af0 <.prname_done>:
    2af0:	02e00593          	li	a1,46
    2af4:	00b62023          	sw	a1,0(a2)
    2af8:	00b62023          	sw	a1,0(a2)

00002afc <test_2>:
    2afc:	00200e13          	li	t3,2
    2b00:	00000f93          	li	t6,0
    2b04:	00000117          	auipc	sp,0x0
    2b08:	01810113          	addi	sp,sp,24 # 2b1c <target_2>

00002b0c <linkaddr_2>:
    2b0c:	000109e7          	jalr	s3,sp
    2b10:	00000013          	nop
    2b14:	00000013          	nop
    2b18:	0e40006f          	j	2bfc <fail>

00002b1c <target_2>:
    2b1c:	00000097          	auipc	ra,0x0
    2b20:	ff008093          	addi	ra,ra,-16 # 2b0c <linkaddr_2>
    2b24:	00408093          	addi	ra,ra,4
    2b28:	0d309a63          	bne	ra,s3,2bfc <fail>

00002b2c <test_3>:
    2b2c:	00300e13          	li	t3,3
    2b30:	00000f93          	li	t6,0
    2b34:	00000197          	auipc	gp,0x0
    2b38:	01418193          	addi	gp,gp,20 # 2b48 <target_3>

00002b3c <linkaddr_3>:
    2b3c:	00018067          	jr	gp
    2b40:	00000013          	nop
    2b44:	0b80006f          	j	2bfc <fail>

00002b48 <target_3>:
    2b48:	0a0f9a63          	bnez	t6,2bfc <fail>

00002b4c <test_4>:
    2b4c:	00400e13          	li	t3,4
    2b50:	00000213          	li	tp,0
    2b54:	00000317          	auipc	t1,0x0
    2b58:	01030313          	addi	t1,t1,16 # 2b64 <test_4+0x18>
    2b5c:	000309e7          	jalr	s3,t1
    2b60:	09c01e63          	bne	zero,t3,2bfc <fail>
    2b64:	00120213          	addi	tp,tp,1 # 1 <__boot_address-0x17f>
    2b68:	00200293          	li	t0,2
    2b6c:	fe5214e3          	bne	tp,t0,2b54 <test_4+0x8>

00002b70 <test_5>:
    2b70:	00500e13          	li	t3,5
    2b74:	00000213          	li	tp,0
    2b78:	00000317          	auipc	t1,0x0
    2b7c:	01430313          	addi	t1,t1,20 # 2b8c <test_5+0x1c>
    2b80:	00000013          	nop
    2b84:	000309e7          	jalr	s3,t1
    2b88:	07c01a63          	bne	zero,t3,2bfc <fail>
    2b8c:	00120213          	addi	tp,tp,1 # 1 <__boot_address-0x17f>
    2b90:	00200293          	li	t0,2
    2b94:	fe5212e3          	bne	tp,t0,2b78 <test_5+0x8>

00002b98 <test_6>:
    2b98:	00600e13          	li	t3,6
    2b9c:	00000213          	li	tp,0
    2ba0:	00000317          	auipc	t1,0x0
    2ba4:	01830313          	addi	t1,t1,24 # 2bb8 <test_6+0x20>
    2ba8:	00000013          	nop
    2bac:	00000013          	nop
    2bb0:	000309e7          	jalr	s3,t1
    2bb4:	05c01463          	bne	zero,t3,2bfc <fail>
    2bb8:	00120213          	addi	tp,tp,1 # 1 <__boot_address-0x17f>
    2bbc:	00200293          	li	t0,2
    2bc0:	fe5210e3          	bne	tp,t0,2ba0 <test_6+0x8>

00002bc4 <test_7>:
    2bc4:	00100093          	li	ra,1
    2bc8:	00000117          	auipc	sp,0x0
    2bcc:	01c10113          	addi	sp,sp,28 # 2be4 <test_7+0x20>
    2bd0:	ffc109e7          	jalr	s3,-4(sp)
    2bd4:	00108093          	addi	ra,ra,1
    2bd8:	00108093          	addi	ra,ra,1
    2bdc:	00108093          	addi	ra,ra,1
    2be0:	00108093          	addi	ra,ra,1
    2be4:	00108093          	addi	ra,ra,1
    2be8:	00108093          	addi	ra,ra,1
    2bec:	00400e93          	li	t4,4
    2bf0:	00700e13          	li	t3,7
    2bf4:	01d09463          	bne	ra,t4,2bfc <fail>
    2bf8:	03c01a63          	bne	zero,t3,2c2c <pass>

00002bfc <fail>:
    2bfc:	10000537          	lui	a0,0x10000
    2c00:	04500593          	li	a1,69
    2c04:	05200613          	li	a2,82
    2c08:	04f00693          	li	a3,79
    2c0c:	00a00713          	li	a4,10
    2c10:	00b52023          	sw	a1,0(a0) # 10000000 <end+0xfff49c0>
    2c14:	00c52023          	sw	a2,0(a0)
    2c18:	00c52023          	sw	a2,0(a0)
    2c1c:	00d52023          	sw	a3,0(a0)
    2c20:	00c52023          	sw	a2,0(a0)
    2c24:	00e52023          	sw	a4,0(a0)
    2c28:	00100073          	ebreak

00002c2c <pass>:
    2c2c:	10000537          	lui	a0,0x10000
    2c30:	04f00593          	li	a1,79
    2c34:	04b00613          	li	a2,75
    2c38:	00a00693          	li	a3,10
    2c3c:	00b52023          	sw	a1,0(a0) # 10000000 <end+0xfff49c0>
    2c40:	00c52023          	sw	a2,0(a0)
    2c44:	00d52023          	sw	a3,0(a0)
    2c48:	000f0113          	mv	sp,t5
    2c4c:	ffc12183          	lw	gp,-4(sp)
    2c50:	ff812083          	lw	ra,-8(sp)
    2c54:	e3cfd06f          	j	290 <jalr_ret>

00002c58 <jal>:
    2c58:	00010f13          	mv	t5,sp
    2c5c:	fe312e23          	sw	gp,-4(sp)
    2c60:	fe112c23          	sw	ra,-8(sp)
    2c64:	0000b537          	lui	a0,0xb
    2c68:	1b450513          	addi	a0,a0,436 # b1b4 <jal_data>
    2c6c:	10000637          	lui	a2,0x10000

00002c70 <.prname_next>:
    2c70:	00050583          	lb	a1,0(a0)
    2c74:	00058863          	beqz	a1,2c84 <.prname_done>
    2c78:	00b62023          	sw	a1,0(a2) # 10000000 <end+0xfff49c0>
    2c7c:	00150513          	addi	a0,a0,1
    2c80:	ff1ff06f          	j	2c70 <.prname_next>

00002c84 <.prname_done>:
    2c84:	02e00593          	li	a1,46
    2c88:	00b62023          	sw	a1,0(a2)
    2c8c:	00b62023          	sw	a1,0(a2)

00002c90 <test_2>:
    2c90:	00200e13          	li	t3,2
    2c94:	00000093          	li	ra,0

00002c98 <linkaddr_2>:
    2c98:	010000ef          	jal	ra,2ca8 <target_2>
    2c9c:	00000013          	nop
    2ca0:	00000013          	nop
    2ca4:	0440006f          	j	2ce8 <fail>

00002ca8 <target_2>:
    2ca8:	00000117          	auipc	sp,0x0
    2cac:	ff010113          	addi	sp,sp,-16 # 2c98 <linkaddr_2>
    2cb0:	00410113          	addi	sp,sp,4
    2cb4:	02111a63          	bne	sp,ra,2ce8 <fail>

00002cb8 <test_3>:
    2cb8:	00100113          	li	sp,1
    2cbc:	014000ef          	jal	ra,2cd0 <test_3+0x18>
    2cc0:	00110113          	addi	sp,sp,1
    2cc4:	00110113          	addi	sp,sp,1
    2cc8:	00110113          	addi	sp,sp,1
    2ccc:	00110113          	addi	sp,sp,1
    2cd0:	00110113          	addi	sp,sp,1
    2cd4:	00110113          	addi	sp,sp,1
    2cd8:	00300e93          	li	t4,3
    2cdc:	00300e13          	li	t3,3
    2ce0:	01d11463          	bne	sp,t4,2ce8 <fail>
    2ce4:	03c01a63          	bne	zero,t3,2d18 <pass>

00002ce8 <fail>:
    2ce8:	10000537          	lui	a0,0x10000
    2cec:	04500593          	li	a1,69
    2cf0:	05200613          	li	a2,82
    2cf4:	04f00693          	li	a3,79
    2cf8:	00a00713          	li	a4,10
    2cfc:	00b52023          	sw	a1,0(a0) # 10000000 <end+0xfff49c0>
    2d00:	00c52023          	sw	a2,0(a0)
    2d04:	00c52023          	sw	a2,0(a0)
    2d08:	00d52023          	sw	a3,0(a0)
    2d0c:	00c52023          	sw	a2,0(a0)
    2d10:	00e52023          	sw	a4,0(a0)
    2d14:	00100073          	ebreak

00002d18 <pass>:
    2d18:	10000537          	lui	a0,0x10000
    2d1c:	04f00593          	li	a1,79
    2d20:	04b00613          	li	a2,75
    2d24:	00a00693          	li	a3,10
    2d28:	00b52023          	sw	a1,0(a0) # 10000000 <end+0xfff49c0>
    2d2c:	00c52023          	sw	a2,0(a0)
    2d30:	00d52023          	sw	a3,0(a0)
    2d34:	000f0113          	mv	sp,t5
    2d38:	ffc12183          	lw	gp,-4(sp)
    2d3c:	ff812083          	lw	ra,-8(sp)
    2d40:	d48fd06f          	j	288 <jal_ret>

00002d44 <j>:
    2d44:	00010f13          	mv	t5,sp
    2d48:	fe312e23          	sw	gp,-4(sp)
    2d4c:	fe112c23          	sw	ra,-8(sp)
    2d50:	0000b537          	lui	a0,0xb
    2d54:	1d450513          	addi	a0,a0,468 # b1d4 <j_data>
    2d58:	10000637          	lui	a2,0x10000

00002d5c <.prname_next>:
    2d5c:	00050583          	lb	a1,0(a0)
    2d60:	00058863          	beqz	a1,2d70 <.prname_done>
    2d64:	00b62023          	sw	a1,0(a2) # 10000000 <end+0xfff49c0>
    2d68:	00150513          	addi	a0,a0,1
    2d6c:	ff1ff06f          	j	2d5c <.prname_next>

00002d70 <.prname_done>:
    2d70:	02e00593          	li	a1,46
    2d74:	00b62023          	sw	a1,0(a2)
    2d78:	00b62023          	sw	a1,0(a2)
    2d7c:	00200e13          	li	t3,2
    2d80:	0080006f          	j	2d88 <test_2>
    2d84:	0340006f          	j	2db8 <fail>

00002d88 <test_2>:
    2d88:	00100093          	li	ra,1
    2d8c:	0140006f          	j	2da0 <test_2+0x18>
    2d90:	00108093          	addi	ra,ra,1
    2d94:	00108093          	addi	ra,ra,1
    2d98:	00108093          	addi	ra,ra,1
    2d9c:	00108093          	addi	ra,ra,1
    2da0:	00108093          	addi	ra,ra,1
    2da4:	00108093          	addi	ra,ra,1
    2da8:	00300e93          	li	t4,3
    2dac:	00300e13          	li	t3,3
    2db0:	01d09463          	bne	ra,t4,2db8 <fail>
    2db4:	03c01a63          	bne	zero,t3,2de8 <pass>

00002db8 <fail>:
    2db8:	10000537          	lui	a0,0x10000
    2dbc:	04500593          	li	a1,69
    2dc0:	05200613          	li	a2,82
    2dc4:	04f00693          	li	a3,79
    2dc8:	00a00713          	li	a4,10
    2dcc:	00b52023          	sw	a1,0(a0) # 10000000 <end+0xfff49c0>
    2dd0:	00c52023          	sw	a2,0(a0)
    2dd4:	00c52023          	sw	a2,0(a0)
    2dd8:	00d52023          	sw	a3,0(a0)
    2ddc:	00c52023          	sw	a2,0(a0)
    2de0:	00e52023          	sw	a4,0(a0)
    2de4:	00100073          	ebreak

00002de8 <pass>:
    2de8:	10000537          	lui	a0,0x10000
    2dec:	04f00593          	li	a1,79
    2df0:	04b00613          	li	a2,75
    2df4:	00a00693          	li	a3,10
    2df8:	00b52023          	sw	a1,0(a0) # 10000000 <end+0xfff49c0>
    2dfc:	00c52023          	sw	a2,0(a0)
    2e00:	00d52023          	sw	a3,0(a0)
    2e04:	000f0113          	mv	sp,t5
    2e08:	ffc12183          	lw	gp,-4(sp)
    2e0c:	ff812083          	lw	ra,-8(sp)
    2e10:	c70fd06f          	j	280 <j_ret>

00002e14 <lb>:
    2e14:	00010f13          	mv	t5,sp
    2e18:	fe312e23          	sw	gp,-4(sp)
    2e1c:	fe112c23          	sw	ra,-8(sp)
    2e20:	0000b537          	lui	a0,0xb
    2e24:	1f450513          	addi	a0,a0,500 # b1f4 <lb_data>
    2e28:	10000637          	lui	a2,0x10000

00002e2c <.prname_next>:
    2e2c:	00050583          	lb	a1,0(a0)
    2e30:	00058863          	beqz	a1,2e40 <.prname_done>
    2e34:	00b62023          	sw	a1,0(a2) # 10000000 <end+0xfff49c0>
    2e38:	00150513          	addi	a0,a0,1
    2e3c:	ff1ff06f          	j	2e2c <.prname_next>

00002e40 <.prname_done>:
    2e40:	02e00593          	li	a1,46
    2e44:	00b62023          	sw	a1,0(a2)
    2e48:	00b62023          	sw	a1,0(a2)

00002e4c <test_2>:
    2e4c:	00008097          	auipc	ra,0x8
    2e50:	3ac08093          	addi	ra,ra,940 # b1f8 <tdat>
    2e54:	00008183          	lb	gp,0(ra)
    2e58:	fff00e93          	li	t4,-1
    2e5c:	00200e13          	li	t3,2
    2e60:	23d19c63          	bne	gp,t4,3098 <fail>

00002e64 <test_3>:
    2e64:	00008097          	auipc	ra,0x8
    2e68:	39408093          	addi	ra,ra,916 # b1f8 <tdat>
    2e6c:	00108183          	lb	gp,1(ra)
    2e70:	00000e93          	li	t4,0
    2e74:	00300e13          	li	t3,3
    2e78:	23d19063          	bne	gp,t4,3098 <fail>

00002e7c <test_4>:
    2e7c:	00008097          	auipc	ra,0x8
    2e80:	37c08093          	addi	ra,ra,892 # b1f8 <tdat>
    2e84:	00208183          	lb	gp,2(ra)
    2e88:	ff000e93          	li	t4,-16
    2e8c:	00400e13          	li	t3,4
    2e90:	21d19463          	bne	gp,t4,3098 <fail>

00002e94 <test_5>:
    2e94:	00008097          	auipc	ra,0x8
    2e98:	36408093          	addi	ra,ra,868 # b1f8 <tdat>
    2e9c:	00308183          	lb	gp,3(ra)
    2ea0:	00f00e93          	li	t4,15
    2ea4:	00500e13          	li	t3,5
    2ea8:	1fd19863          	bne	gp,t4,3098 <fail>

00002eac <test_6>:
    2eac:	00008097          	auipc	ra,0x8
    2eb0:	34f08093          	addi	ra,ra,847 # b1fb <tdat4>
    2eb4:	ffd08183          	lb	gp,-3(ra)
    2eb8:	fff00e93          	li	t4,-1
    2ebc:	00600e13          	li	t3,6
    2ec0:	1dd19c63          	bne	gp,t4,3098 <fail>

00002ec4 <test_7>:
    2ec4:	00008097          	auipc	ra,0x8
    2ec8:	33708093          	addi	ra,ra,823 # b1fb <tdat4>
    2ecc:	ffe08183          	lb	gp,-2(ra)
    2ed0:	00000e93          	li	t4,0
    2ed4:	00700e13          	li	t3,7
    2ed8:	1dd19063          	bne	gp,t4,3098 <fail>

00002edc <test_8>:
    2edc:	00008097          	auipc	ra,0x8
    2ee0:	31f08093          	addi	ra,ra,799 # b1fb <tdat4>
    2ee4:	fff08183          	lb	gp,-1(ra)
    2ee8:	ff000e93          	li	t4,-16
    2eec:	00800e13          	li	t3,8
    2ef0:	1bd19463          	bne	gp,t4,3098 <fail>

00002ef4 <test_9>:
    2ef4:	00008097          	auipc	ra,0x8
    2ef8:	30708093          	addi	ra,ra,775 # b1fb <tdat4>
    2efc:	00008183          	lb	gp,0(ra)
    2f00:	00f00e93          	li	t4,15
    2f04:	00900e13          	li	t3,9
    2f08:	19d19863          	bne	gp,t4,3098 <fail>

00002f0c <test_10>:
    2f0c:	00008097          	auipc	ra,0x8
    2f10:	2ec08093          	addi	ra,ra,748 # b1f8 <tdat>
    2f14:	fe008093          	addi	ra,ra,-32
    2f18:	02008183          	lb	gp,32(ra)
    2f1c:	fff00e93          	li	t4,-1
    2f20:	00a00e13          	li	t3,10
    2f24:	17d19a63          	bne	gp,t4,3098 <fail>

00002f28 <test_11>:
    2f28:	00008097          	auipc	ra,0x8
    2f2c:	2d008093          	addi	ra,ra,720 # b1f8 <tdat>
    2f30:	ffa08093          	addi	ra,ra,-6
    2f34:	00708183          	lb	gp,7(ra)
    2f38:	00000e93          	li	t4,0
    2f3c:	00b00e13          	li	t3,11
    2f40:	15d19c63          	bne	gp,t4,3098 <fail>

00002f44 <test_12>:
    2f44:	00c00e13          	li	t3,12
    2f48:	00000213          	li	tp,0
    2f4c:	00008097          	auipc	ra,0x8
    2f50:	2ad08093          	addi	ra,ra,685 # b1f9 <tdat2>
    2f54:	00108183          	lb	gp,1(ra)
    2f58:	00018313          	mv	t1,gp
    2f5c:	ff000e93          	li	t4,-16
    2f60:	13d31c63          	bne	t1,t4,3098 <fail>
    2f64:	00120213          	addi	tp,tp,1 # 1 <__boot_address-0x17f>
    2f68:	00200293          	li	t0,2
    2f6c:	fe5210e3          	bne	tp,t0,2f4c <test_12+0x8>

00002f70 <test_13>:
    2f70:	00d00e13          	li	t3,13
    2f74:	00000213          	li	tp,0
    2f78:	00008097          	auipc	ra,0x8
    2f7c:	28208093          	addi	ra,ra,642 # b1fa <tdat3>
    2f80:	00108183          	lb	gp,1(ra)
    2f84:	00000013          	nop
    2f88:	00018313          	mv	t1,gp
    2f8c:	00f00e93          	li	t4,15
    2f90:	11d31463          	bne	t1,t4,3098 <fail>
    2f94:	00120213          	addi	tp,tp,1 # 1 <__boot_address-0x17f>
    2f98:	00200293          	li	t0,2
    2f9c:	fc521ee3          	bne	tp,t0,2f78 <test_13+0x8>

00002fa0 <test_14>:
    2fa0:	00e00e13          	li	t3,14
    2fa4:	00000213          	li	tp,0
    2fa8:	00008097          	auipc	ra,0x8
    2fac:	25008093          	addi	ra,ra,592 # b1f8 <tdat>
    2fb0:	00108183          	lb	gp,1(ra)
    2fb4:	00000013          	nop
    2fb8:	00000013          	nop
    2fbc:	00018313          	mv	t1,gp
    2fc0:	00000e93          	li	t4,0
    2fc4:	0dd31a63          	bne	t1,t4,3098 <fail>
    2fc8:	00120213          	addi	tp,tp,1 # 1 <__boot_address-0x17f>
    2fcc:	00200293          	li	t0,2
    2fd0:	fc521ce3          	bne	tp,t0,2fa8 <test_14+0x8>

00002fd4 <test_15>:
    2fd4:	00f00e13          	li	t3,15
    2fd8:	00000213          	li	tp,0
    2fdc:	00008097          	auipc	ra,0x8
    2fe0:	21d08093          	addi	ra,ra,541 # b1f9 <tdat2>
    2fe4:	00108183          	lb	gp,1(ra)
    2fe8:	ff000e93          	li	t4,-16
    2fec:	0bd19663          	bne	gp,t4,3098 <fail>
    2ff0:	00120213          	addi	tp,tp,1 # 1 <__boot_address-0x17f>
    2ff4:	00200293          	li	t0,2
    2ff8:	fe5212e3          	bne	tp,t0,2fdc <test_15+0x8>

00002ffc <test_16>:
    2ffc:	01000e13          	li	t3,16
    3000:	00000213          	li	tp,0
    3004:	00008097          	auipc	ra,0x8
    3008:	1f608093          	addi	ra,ra,502 # b1fa <tdat3>
    300c:	00000013          	nop
    3010:	00108183          	lb	gp,1(ra)
    3014:	00f00e93          	li	t4,15
    3018:	09d19063          	bne	gp,t4,3098 <fail>
    301c:	00120213          	addi	tp,tp,1 # 1 <__boot_address-0x17f>
    3020:	00200293          	li	t0,2
    3024:	fe5210e3          	bne	tp,t0,3004 <test_16+0x8>

00003028 <test_17>:
    3028:	01100e13          	li	t3,17
    302c:	00000213          	li	tp,0
    3030:	00008097          	auipc	ra,0x8
    3034:	1c808093          	addi	ra,ra,456 # b1f8 <tdat>
    3038:	00000013          	nop
    303c:	00000013          	nop
    3040:	00108183          	lb	gp,1(ra)
    3044:	00000e93          	li	t4,0
    3048:	05d19863          	bne	gp,t4,3098 <fail>
    304c:	00120213          	addi	tp,tp,1 # 1 <__boot_address-0x17f>
    3050:	00200293          	li	t0,2
    3054:	fc521ee3          	bne	tp,t0,3030 <test_17+0x8>

00003058 <test_18>:
    3058:	00008197          	auipc	gp,0x8
    305c:	1a018193          	addi	gp,gp,416 # b1f8 <tdat>
    3060:	00018103          	lb	sp,0(gp)
    3064:	00200113          	li	sp,2
    3068:	00200e93          	li	t4,2
    306c:	01200e13          	li	t3,18
    3070:	03d11463          	bne	sp,t4,3098 <fail>

00003074 <test_19>:
    3074:	00008197          	auipc	gp,0x8
    3078:	18418193          	addi	gp,gp,388 # b1f8 <tdat>
    307c:	00018103          	lb	sp,0(gp)
    3080:	00000013          	nop
    3084:	00200113          	li	sp,2
    3088:	00200e93          	li	t4,2
    308c:	01300e13          	li	t3,19
    3090:	01d11463          	bne	sp,t4,3098 <fail>
    3094:	03c01a63          	bne	zero,t3,30c8 <pass>

00003098 <fail>:
    3098:	10000537          	lui	a0,0x10000
    309c:	04500593          	li	a1,69
    30a0:	05200613          	li	a2,82
    30a4:	04f00693          	li	a3,79
    30a8:	00a00713          	li	a4,10
    30ac:	00b52023          	sw	a1,0(a0) # 10000000 <end+0xfff49c0>
    30b0:	00c52023          	sw	a2,0(a0)
    30b4:	00c52023          	sw	a2,0(a0)
    30b8:	00d52023          	sw	a3,0(a0)
    30bc:	00c52023          	sw	a2,0(a0)
    30c0:	00e52023          	sw	a4,0(a0)
    30c4:	00100073          	ebreak

000030c8 <pass>:
    30c8:	10000537          	lui	a0,0x10000
    30cc:	04f00593          	li	a1,79
    30d0:	04b00613          	li	a2,75
    30d4:	00a00693          	li	a3,10
    30d8:	00b52023          	sw	a1,0(a0) # 10000000 <end+0xfff49c0>
    30dc:	00c52023          	sw	a2,0(a0)
    30e0:	00d52023          	sw	a3,0(a0)
    30e4:	000f0113          	mv	sp,t5
    30e8:	ffc12183          	lw	gp,-4(sp)
    30ec:	ff812083          	lw	ra,-8(sp)
    30f0:	9d8fd06f          	j	2c8 <lb_ret>

000030f4 <lbu>:
    30f4:	00010f13          	mv	t5,sp
    30f8:	fe312e23          	sw	gp,-4(sp)
    30fc:	fe112c23          	sw	ra,-8(sp)
    3100:	0000b537          	lui	a0,0xb
    3104:	21850513          	addi	a0,a0,536 # b218 <lbu_data>
    3108:	10000637          	lui	a2,0x10000

0000310c <.prname_next>:
    310c:	00050583          	lb	a1,0(a0)
    3110:	00058863          	beqz	a1,3120 <.prname_done>
    3114:	00b62023          	sw	a1,0(a2) # 10000000 <end+0xfff49c0>
    3118:	00150513          	addi	a0,a0,1
    311c:	ff1ff06f          	j	310c <.prname_next>

00003120 <.prname_done>:
    3120:	02e00593          	li	a1,46
    3124:	00b62023          	sw	a1,0(a2)
    3128:	00b62023          	sw	a1,0(a2)

0000312c <test_2>:
    312c:	00008097          	auipc	ra,0x8
    3130:	0f008093          	addi	ra,ra,240 # b21c <tdat>
    3134:	0000c183          	lbu	gp,0(ra)
    3138:	0ff00e93          	li	t4,255
    313c:	00200e13          	li	t3,2
    3140:	23d19c63          	bne	gp,t4,3378 <fail>

00003144 <test_3>:
    3144:	00008097          	auipc	ra,0x8
    3148:	0d808093          	addi	ra,ra,216 # b21c <tdat>
    314c:	0010c183          	lbu	gp,1(ra)
    3150:	00000e93          	li	t4,0
    3154:	00300e13          	li	t3,3
    3158:	23d19063          	bne	gp,t4,3378 <fail>

0000315c <test_4>:
    315c:	00008097          	auipc	ra,0x8
    3160:	0c008093          	addi	ra,ra,192 # b21c <tdat>
    3164:	0020c183          	lbu	gp,2(ra)
    3168:	0f000e93          	li	t4,240
    316c:	00400e13          	li	t3,4
    3170:	21d19463          	bne	gp,t4,3378 <fail>

00003174 <test_5>:
    3174:	00008097          	auipc	ra,0x8
    3178:	0a808093          	addi	ra,ra,168 # b21c <tdat>
    317c:	0030c183          	lbu	gp,3(ra)
    3180:	00f00e93          	li	t4,15
    3184:	00500e13          	li	t3,5
    3188:	1fd19863          	bne	gp,t4,3378 <fail>

0000318c <test_6>:
    318c:	00008097          	auipc	ra,0x8
    3190:	09308093          	addi	ra,ra,147 # b21f <tdat4>
    3194:	ffd0c183          	lbu	gp,-3(ra)
    3198:	0ff00e93          	li	t4,255
    319c:	00600e13          	li	t3,6
    31a0:	1dd19c63          	bne	gp,t4,3378 <fail>

000031a4 <test_7>:
    31a4:	00008097          	auipc	ra,0x8
    31a8:	07b08093          	addi	ra,ra,123 # b21f <tdat4>
    31ac:	ffe0c183          	lbu	gp,-2(ra)
    31b0:	00000e93          	li	t4,0
    31b4:	00700e13          	li	t3,7
    31b8:	1dd19063          	bne	gp,t4,3378 <fail>

000031bc <test_8>:
    31bc:	00008097          	auipc	ra,0x8
    31c0:	06308093          	addi	ra,ra,99 # b21f <tdat4>
    31c4:	fff0c183          	lbu	gp,-1(ra)
    31c8:	0f000e93          	li	t4,240
    31cc:	00800e13          	li	t3,8
    31d0:	1bd19463          	bne	gp,t4,3378 <fail>

000031d4 <test_9>:
    31d4:	00008097          	auipc	ra,0x8
    31d8:	04b08093          	addi	ra,ra,75 # b21f <tdat4>
    31dc:	0000c183          	lbu	gp,0(ra)
    31e0:	00f00e93          	li	t4,15
    31e4:	00900e13          	li	t3,9
    31e8:	19d19863          	bne	gp,t4,3378 <fail>

000031ec <test_10>:
    31ec:	00008097          	auipc	ra,0x8
    31f0:	03008093          	addi	ra,ra,48 # b21c <tdat>
    31f4:	fe008093          	addi	ra,ra,-32
    31f8:	0200c183          	lbu	gp,32(ra)
    31fc:	0ff00e93          	li	t4,255
    3200:	00a00e13          	li	t3,10
    3204:	17d19a63          	bne	gp,t4,3378 <fail>

00003208 <test_11>:
    3208:	00008097          	auipc	ra,0x8
    320c:	01408093          	addi	ra,ra,20 # b21c <tdat>
    3210:	ffa08093          	addi	ra,ra,-6
    3214:	0070c183          	lbu	gp,7(ra)
    3218:	00000e93          	li	t4,0
    321c:	00b00e13          	li	t3,11
    3220:	15d19c63          	bne	gp,t4,3378 <fail>

00003224 <test_12>:
    3224:	00c00e13          	li	t3,12
    3228:	00000213          	li	tp,0
    322c:	00008097          	auipc	ra,0x8
    3230:	ff108093          	addi	ra,ra,-15 # b21d <tdat2>
    3234:	0010c183          	lbu	gp,1(ra)
    3238:	00018313          	mv	t1,gp
    323c:	0f000e93          	li	t4,240
    3240:	13d31c63          	bne	t1,t4,3378 <fail>
    3244:	00120213          	addi	tp,tp,1 # 1 <__boot_address-0x17f>
    3248:	00200293          	li	t0,2
    324c:	fe5210e3          	bne	tp,t0,322c <test_12+0x8>

00003250 <test_13>:
    3250:	00d00e13          	li	t3,13
    3254:	00000213          	li	tp,0
    3258:	00008097          	auipc	ra,0x8
    325c:	fc608093          	addi	ra,ra,-58 # b21e <tdat3>
    3260:	0010c183          	lbu	gp,1(ra)
    3264:	00000013          	nop
    3268:	00018313          	mv	t1,gp
    326c:	00f00e93          	li	t4,15
    3270:	11d31463          	bne	t1,t4,3378 <fail>
    3274:	00120213          	addi	tp,tp,1 # 1 <__boot_address-0x17f>
    3278:	00200293          	li	t0,2
    327c:	fc521ee3          	bne	tp,t0,3258 <test_13+0x8>

00003280 <test_14>:
    3280:	00e00e13          	li	t3,14
    3284:	00000213          	li	tp,0
    3288:	00008097          	auipc	ra,0x8
    328c:	f9408093          	addi	ra,ra,-108 # b21c <tdat>
    3290:	0010c183          	lbu	gp,1(ra)
    3294:	00000013          	nop
    3298:	00000013          	nop
    329c:	00018313          	mv	t1,gp
    32a0:	00000e93          	li	t4,0
    32a4:	0dd31a63          	bne	t1,t4,3378 <fail>
    32a8:	00120213          	addi	tp,tp,1 # 1 <__boot_address-0x17f>
    32ac:	00200293          	li	t0,2
    32b0:	fc521ce3          	bne	tp,t0,3288 <test_14+0x8>

000032b4 <test_15>:
    32b4:	00f00e13          	li	t3,15
    32b8:	00000213          	li	tp,0
    32bc:	00008097          	auipc	ra,0x8
    32c0:	f6108093          	addi	ra,ra,-159 # b21d <tdat2>
    32c4:	0010c183          	lbu	gp,1(ra)
    32c8:	0f000e93          	li	t4,240
    32cc:	0bd19663          	bne	gp,t4,3378 <fail>
    32d0:	00120213          	addi	tp,tp,1 # 1 <__boot_address-0x17f>
    32d4:	00200293          	li	t0,2
    32d8:	fe5212e3          	bne	tp,t0,32bc <test_15+0x8>

000032dc <test_16>:
    32dc:	01000e13          	li	t3,16
    32e0:	00000213          	li	tp,0
    32e4:	00008097          	auipc	ra,0x8
    32e8:	f3a08093          	addi	ra,ra,-198 # b21e <tdat3>
    32ec:	00000013          	nop
    32f0:	0010c183          	lbu	gp,1(ra)
    32f4:	00f00e93          	li	t4,15
    32f8:	09d19063          	bne	gp,t4,3378 <fail>
    32fc:	00120213          	addi	tp,tp,1 # 1 <__boot_address-0x17f>
    3300:	00200293          	li	t0,2
    3304:	fe5210e3          	bne	tp,t0,32e4 <test_16+0x8>

00003308 <test_17>:
    3308:	01100e13          	li	t3,17
    330c:	00000213          	li	tp,0
    3310:	00008097          	auipc	ra,0x8
    3314:	f0c08093          	addi	ra,ra,-244 # b21c <tdat>
    3318:	00000013          	nop
    331c:	00000013          	nop
    3320:	0010c183          	lbu	gp,1(ra)
    3324:	00000e93          	li	t4,0
    3328:	05d19863          	bne	gp,t4,3378 <fail>
    332c:	00120213          	addi	tp,tp,1 # 1 <__boot_address-0x17f>
    3330:	00200293          	li	t0,2
    3334:	fc521ee3          	bne	tp,t0,3310 <test_17+0x8>

00003338 <test_18>:
    3338:	00008197          	auipc	gp,0x8
    333c:	ee418193          	addi	gp,gp,-284 # b21c <tdat>
    3340:	0001c103          	lbu	sp,0(gp)
    3344:	00200113          	li	sp,2
    3348:	00200e93          	li	t4,2
    334c:	01200e13          	li	t3,18
    3350:	03d11463          	bne	sp,t4,3378 <fail>

00003354 <test_19>:
    3354:	00008197          	auipc	gp,0x8
    3358:	ec818193          	addi	gp,gp,-312 # b21c <tdat>
    335c:	0001c103          	lbu	sp,0(gp)
    3360:	00000013          	nop
    3364:	00200113          	li	sp,2
    3368:	00200e93          	li	t4,2
    336c:	01300e13          	li	t3,19
    3370:	01d11463          	bne	sp,t4,3378 <fail>
    3374:	03c01a63          	bne	zero,t3,33a8 <pass>

00003378 <fail>:
    3378:	10000537          	lui	a0,0x10000
    337c:	04500593          	li	a1,69
    3380:	05200613          	li	a2,82
    3384:	04f00693          	li	a3,79
    3388:	00a00713          	li	a4,10
    338c:	00b52023          	sw	a1,0(a0) # 10000000 <end+0xfff49c0>
    3390:	00c52023          	sw	a2,0(a0)
    3394:	00c52023          	sw	a2,0(a0)
    3398:	00d52023          	sw	a3,0(a0)
    339c:	00c52023          	sw	a2,0(a0)
    33a0:	00e52023          	sw	a4,0(a0)
    33a4:	00100073          	ebreak

000033a8 <pass>:
    33a8:	10000537          	lui	a0,0x10000
    33ac:	04f00593          	li	a1,79
    33b0:	04b00613          	li	a2,75
    33b4:	00a00693          	li	a3,10
    33b8:	00b52023          	sw	a1,0(a0) # 10000000 <end+0xfff49c0>
    33bc:	00c52023          	sw	a2,0(a0)
    33c0:	00d52023          	sw	a3,0(a0)
    33c4:	000f0113          	mv	sp,t5
    33c8:	ffc12183          	lw	gp,-4(sp)
    33cc:	ff812083          	lw	ra,-8(sp)
    33d0:	f11fc06f          	j	2e0 <lbu_ret>

000033d4 <lh>:
    33d4:	00010f13          	mv	t5,sp
    33d8:	fe312e23          	sw	gp,-4(sp)
    33dc:	fe112c23          	sw	ra,-8(sp)
    33e0:	0000b537          	lui	a0,0xb
    33e4:	23c50513          	addi	a0,a0,572 # b23c <lh_data>
    33e8:	10000637          	lui	a2,0x10000

000033ec <.prname_next>:
    33ec:	00050583          	lb	a1,0(a0)
    33f0:	00058863          	beqz	a1,3400 <.prname_done>
    33f4:	00b62023          	sw	a1,0(a2) # 10000000 <end+0xfff49c0>
    33f8:	00150513          	addi	a0,a0,1
    33fc:	ff1ff06f          	j	33ec <.prname_next>

00003400 <.prname_done>:
    3400:	02e00593          	li	a1,46
    3404:	00b62023          	sw	a1,0(a2)
    3408:	00b62023          	sw	a1,0(a2)

0000340c <test_2>:
    340c:	00008097          	auipc	ra,0x8
    3410:	e3408093          	addi	ra,ra,-460 # b240 <tdat>
    3414:	00009183          	lh	gp,0(ra)
    3418:	0ff00e93          	li	t4,255
    341c:	00200e13          	li	t3,2
    3420:	25d19c63          	bne	gp,t4,3678 <fail>

00003424 <test_3>:
    3424:	00008097          	auipc	ra,0x8
    3428:	e1c08093          	addi	ra,ra,-484 # b240 <tdat>
    342c:	00209183          	lh	gp,2(ra)
    3430:	f0000e93          	li	t4,-256
    3434:	00300e13          	li	t3,3
    3438:	25d19063          	bne	gp,t4,3678 <fail>

0000343c <test_4>:
    343c:	00008097          	auipc	ra,0x8
    3440:	e0408093          	addi	ra,ra,-508 # b240 <tdat>
    3444:	00409183          	lh	gp,4(ra)
    3448:	00001eb7          	lui	t4,0x1
    344c:	ff0e8e93          	addi	t4,t4,-16 # ff0 <test_3+0x18>
    3450:	00400e13          	li	t3,4
    3454:	23d19263          	bne	gp,t4,3678 <fail>

00003458 <test_5>:
    3458:	00008097          	auipc	ra,0x8
    345c:	de808093          	addi	ra,ra,-536 # b240 <tdat>
    3460:	00609183          	lh	gp,6(ra)
    3464:	fffffeb7          	lui	t4,0xfffff
    3468:	00fe8e93          	addi	t4,t4,15 # fffff00f <end+0xffff39cf>
    346c:	00500e13          	li	t3,5
    3470:	21d19463          	bne	gp,t4,3678 <fail>

00003474 <test_6>:
    3474:	00008097          	auipc	ra,0x8
    3478:	dd208093          	addi	ra,ra,-558 # b246 <tdat4>
    347c:	ffa09183          	lh	gp,-6(ra)
    3480:	0ff00e93          	li	t4,255
    3484:	00600e13          	li	t3,6
    3488:	1fd19863          	bne	gp,t4,3678 <fail>

0000348c <test_7>:
    348c:	00008097          	auipc	ra,0x8
    3490:	dba08093          	addi	ra,ra,-582 # b246 <tdat4>
    3494:	ffc09183          	lh	gp,-4(ra)
    3498:	f0000e93          	li	t4,-256
    349c:	00700e13          	li	t3,7
    34a0:	1dd19c63          	bne	gp,t4,3678 <fail>

000034a4 <test_8>:
    34a4:	00008097          	auipc	ra,0x8
    34a8:	da208093          	addi	ra,ra,-606 # b246 <tdat4>
    34ac:	ffe09183          	lh	gp,-2(ra)
    34b0:	00001eb7          	lui	t4,0x1
    34b4:	ff0e8e93          	addi	t4,t4,-16 # ff0 <test_3+0x18>
    34b8:	00800e13          	li	t3,8
    34bc:	1bd19e63          	bne	gp,t4,3678 <fail>

000034c0 <test_9>:
    34c0:	00008097          	auipc	ra,0x8
    34c4:	d8608093          	addi	ra,ra,-634 # b246 <tdat4>
    34c8:	00009183          	lh	gp,0(ra)
    34cc:	fffffeb7          	lui	t4,0xfffff
    34d0:	00fe8e93          	addi	t4,t4,15 # fffff00f <end+0xffff39cf>
    34d4:	00900e13          	li	t3,9
    34d8:	1bd19063          	bne	gp,t4,3678 <fail>

000034dc <test_10>:
    34dc:	00008097          	auipc	ra,0x8
    34e0:	d6408093          	addi	ra,ra,-668 # b240 <tdat>
    34e4:	fe008093          	addi	ra,ra,-32
    34e8:	02009183          	lh	gp,32(ra)
    34ec:	0ff00e93          	li	t4,255
    34f0:	00a00e13          	li	t3,10
    34f4:	19d19263          	bne	gp,t4,3678 <fail>

000034f8 <test_11>:
    34f8:	00008097          	auipc	ra,0x8
    34fc:	d4808093          	addi	ra,ra,-696 # b240 <tdat>
    3500:	ffb08093          	addi	ra,ra,-5
    3504:	00709183          	lh	gp,7(ra)
    3508:	f0000e93          	li	t4,-256
    350c:	00b00e13          	li	t3,11
    3510:	17d19463          	bne	gp,t4,3678 <fail>

00003514 <test_12>:
    3514:	00c00e13          	li	t3,12
    3518:	00000213          	li	tp,0
    351c:	00008097          	auipc	ra,0x8
    3520:	d2608093          	addi	ra,ra,-730 # b242 <tdat2>
    3524:	00209183          	lh	gp,2(ra)
    3528:	00018313          	mv	t1,gp
    352c:	00001eb7          	lui	t4,0x1
    3530:	ff0e8e93          	addi	t4,t4,-16 # ff0 <test_3+0x18>
    3534:	15d31263          	bne	t1,t4,3678 <fail>
    3538:	00120213          	addi	tp,tp,1 # 1 <__boot_address-0x17f>
    353c:	00200293          	li	t0,2
    3540:	fc521ee3          	bne	tp,t0,351c <test_12+0x8>

00003544 <test_13>:
    3544:	00d00e13          	li	t3,13
    3548:	00000213          	li	tp,0
    354c:	00008097          	auipc	ra,0x8
    3550:	cf808093          	addi	ra,ra,-776 # b244 <tdat3>
    3554:	00209183          	lh	gp,2(ra)
    3558:	00000013          	nop
    355c:	00018313          	mv	t1,gp
    3560:	fffffeb7          	lui	t4,0xfffff
    3564:	00fe8e93          	addi	t4,t4,15 # fffff00f <end+0xffff39cf>
    3568:	11d31863          	bne	t1,t4,3678 <fail>
    356c:	00120213          	addi	tp,tp,1 # 1 <__boot_address-0x17f>
    3570:	00200293          	li	t0,2
    3574:	fc521ce3          	bne	tp,t0,354c <test_13+0x8>

00003578 <test_14>:
    3578:	00e00e13          	li	t3,14
    357c:	00000213          	li	tp,0
    3580:	00008097          	auipc	ra,0x8
    3584:	cc008093          	addi	ra,ra,-832 # b240 <tdat>
    3588:	00209183          	lh	gp,2(ra)
    358c:	00000013          	nop
    3590:	00000013          	nop
    3594:	00018313          	mv	t1,gp
    3598:	f0000e93          	li	t4,-256
    359c:	0dd31e63          	bne	t1,t4,3678 <fail>
    35a0:	00120213          	addi	tp,tp,1 # 1 <__boot_address-0x17f>
    35a4:	00200293          	li	t0,2
    35a8:	fc521ce3          	bne	tp,t0,3580 <test_14+0x8>

000035ac <test_15>:
    35ac:	00f00e13          	li	t3,15
    35b0:	00000213          	li	tp,0
    35b4:	00008097          	auipc	ra,0x8
    35b8:	c8e08093          	addi	ra,ra,-882 # b242 <tdat2>
    35bc:	00209183          	lh	gp,2(ra)
    35c0:	00001eb7          	lui	t4,0x1
    35c4:	ff0e8e93          	addi	t4,t4,-16 # ff0 <test_3+0x18>
    35c8:	0bd19863          	bne	gp,t4,3678 <fail>
    35cc:	00120213          	addi	tp,tp,1 # 1 <__boot_address-0x17f>
    35d0:	00200293          	li	t0,2
    35d4:	fe5210e3          	bne	tp,t0,35b4 <test_15+0x8>

000035d8 <test_16>:
    35d8:	01000e13          	li	t3,16
    35dc:	00000213          	li	tp,0
    35e0:	00008097          	auipc	ra,0x8
    35e4:	c6408093          	addi	ra,ra,-924 # b244 <tdat3>
    35e8:	00000013          	nop
    35ec:	00209183          	lh	gp,2(ra)
    35f0:	fffffeb7          	lui	t4,0xfffff
    35f4:	00fe8e93          	addi	t4,t4,15 # fffff00f <end+0xffff39cf>
    35f8:	09d19063          	bne	gp,t4,3678 <fail>
    35fc:	00120213          	addi	tp,tp,1 # 1 <__boot_address-0x17f>
    3600:	00200293          	li	t0,2
    3604:	fc521ee3          	bne	tp,t0,35e0 <test_16+0x8>

00003608 <test_17>:
    3608:	01100e13          	li	t3,17
    360c:	00000213          	li	tp,0
    3610:	00008097          	auipc	ra,0x8
    3614:	c3008093          	addi	ra,ra,-976 # b240 <tdat>
    3618:	00000013          	nop
    361c:	00000013          	nop
    3620:	00209183          	lh	gp,2(ra)
    3624:	f0000e93          	li	t4,-256
    3628:	05d19863          	bne	gp,t4,3678 <fail>
    362c:	00120213          	addi	tp,tp,1 # 1 <__boot_address-0x17f>
    3630:	00200293          	li	t0,2
    3634:	fc521ee3          	bne	tp,t0,3610 <test_17+0x8>

00003638 <test_18>:
    3638:	00008197          	auipc	gp,0x8
    363c:	c0818193          	addi	gp,gp,-1016 # b240 <tdat>
    3640:	00019103          	lh	sp,0(gp)
    3644:	00200113          	li	sp,2
    3648:	00200e93          	li	t4,2
    364c:	01200e13          	li	t3,18
    3650:	03d11463          	bne	sp,t4,3678 <fail>

00003654 <test_19>:
    3654:	00008197          	auipc	gp,0x8
    3658:	bec18193          	addi	gp,gp,-1044 # b240 <tdat>
    365c:	00019103          	lh	sp,0(gp)
    3660:	00000013          	nop
    3664:	00200113          	li	sp,2
    3668:	00200e93          	li	t4,2
    366c:	01300e13          	li	t3,19
    3670:	01d11463          	bne	sp,t4,3678 <fail>
    3674:	03c01a63          	bne	zero,t3,36a8 <pass>

00003678 <fail>:
    3678:	10000537          	lui	a0,0x10000
    367c:	04500593          	li	a1,69
    3680:	05200613          	li	a2,82
    3684:	04f00693          	li	a3,79
    3688:	00a00713          	li	a4,10
    368c:	00b52023          	sw	a1,0(a0) # 10000000 <end+0xfff49c0>
    3690:	00c52023          	sw	a2,0(a0)
    3694:	00c52023          	sw	a2,0(a0)
    3698:	00d52023          	sw	a3,0(a0)
    369c:	00c52023          	sw	a2,0(a0)
    36a0:	00e52023          	sw	a4,0(a0)
    36a4:	00100073          	ebreak

000036a8 <pass>:
    36a8:	10000537          	lui	a0,0x10000
    36ac:	04f00593          	li	a1,79
    36b0:	04b00613          	li	a2,75
    36b4:	00a00693          	li	a3,10
    36b8:	00b52023          	sw	a1,0(a0) # 10000000 <end+0xfff49c0>
    36bc:	00c52023          	sw	a2,0(a0)
    36c0:	00d52023          	sw	a3,0(a0)
    36c4:	000f0113          	mv	sp,t5
    36c8:	ffc12183          	lw	gp,-4(sp)
    36cc:	ff812083          	lw	ra,-8(sp)
    36d0:	c01fc06f          	j	2d0 <lh_ret>

000036d4 <lhu>:
    36d4:	00010f13          	mv	t5,sp
    36d8:	fe312e23          	sw	gp,-4(sp)
    36dc:	fe112c23          	sw	ra,-8(sp)
    36e0:	0000b537          	lui	a0,0xb
    36e4:	26450513          	addi	a0,a0,612 # b264 <lhu_data>
    36e8:	10000637          	lui	a2,0x10000

000036ec <.prname_next>:
    36ec:	00050583          	lb	a1,0(a0)
    36f0:	00058863          	beqz	a1,3700 <.prname_done>
    36f4:	00b62023          	sw	a1,0(a2) # 10000000 <end+0xfff49c0>
    36f8:	00150513          	addi	a0,a0,1
    36fc:	ff1ff06f          	j	36ec <.prname_next>

00003700 <.prname_done>:
    3700:	02e00593          	li	a1,46
    3704:	00b62023          	sw	a1,0(a2)
    3708:	00b62023          	sw	a1,0(a2)

0000370c <test_2>:
    370c:	00008097          	auipc	ra,0x8
    3710:	b5c08093          	addi	ra,ra,-1188 # b268 <tdat>
    3714:	0000d183          	lhu	gp,0(ra)
    3718:	0ff00e93          	li	t4,255
    371c:	00200e13          	li	t3,2
    3720:	27d19663          	bne	gp,t4,398c <fail>

00003724 <test_3>:
    3724:	00008097          	auipc	ra,0x8
    3728:	b4408093          	addi	ra,ra,-1212 # b268 <tdat>
    372c:	0020d183          	lhu	gp,2(ra)
    3730:	00010eb7          	lui	t4,0x10
    3734:	f00e8e93          	addi	t4,t4,-256 # ff00 <end+0x48c0>
    3738:	00300e13          	li	t3,3
    373c:	25d19863          	bne	gp,t4,398c <fail>

00003740 <test_4>:
    3740:	00008097          	auipc	ra,0x8
    3744:	b2808093          	addi	ra,ra,-1240 # b268 <tdat>
    3748:	0040d183          	lhu	gp,4(ra)
    374c:	00001eb7          	lui	t4,0x1
    3750:	ff0e8e93          	addi	t4,t4,-16 # ff0 <test_3+0x18>
    3754:	00400e13          	li	t3,4
    3758:	23d19a63          	bne	gp,t4,398c <fail>

0000375c <test_5>:
    375c:	00008097          	auipc	ra,0x8
    3760:	b0c08093          	addi	ra,ra,-1268 # b268 <tdat>
    3764:	0060d183          	lhu	gp,6(ra)
    3768:	0000feb7          	lui	t4,0xf
    376c:	00fe8e93          	addi	t4,t4,15 # f00f <end+0x39cf>
    3770:	00500e13          	li	t3,5
    3774:	21d19c63          	bne	gp,t4,398c <fail>

00003778 <test_6>:
    3778:	00008097          	auipc	ra,0x8
    377c:	af608093          	addi	ra,ra,-1290 # b26e <tdat4>
    3780:	ffa0d183          	lhu	gp,-6(ra)
    3784:	0ff00e93          	li	t4,255
    3788:	00600e13          	li	t3,6
    378c:	21d19063          	bne	gp,t4,398c <fail>

00003790 <test_7>:
    3790:	00008097          	auipc	ra,0x8
    3794:	ade08093          	addi	ra,ra,-1314 # b26e <tdat4>
    3798:	ffc0d183          	lhu	gp,-4(ra)
    379c:	00010eb7          	lui	t4,0x10
    37a0:	f00e8e93          	addi	t4,t4,-256 # ff00 <end+0x48c0>
    37a4:	00700e13          	li	t3,7
    37a8:	1fd19263          	bne	gp,t4,398c <fail>

000037ac <test_8>:
    37ac:	00008097          	auipc	ra,0x8
    37b0:	ac208093          	addi	ra,ra,-1342 # b26e <tdat4>
    37b4:	ffe0d183          	lhu	gp,-2(ra)
    37b8:	00001eb7          	lui	t4,0x1
    37bc:	ff0e8e93          	addi	t4,t4,-16 # ff0 <test_3+0x18>
    37c0:	00800e13          	li	t3,8
    37c4:	1dd19463          	bne	gp,t4,398c <fail>

000037c8 <test_9>:
    37c8:	00008097          	auipc	ra,0x8
    37cc:	aa608093          	addi	ra,ra,-1370 # b26e <tdat4>
    37d0:	0000d183          	lhu	gp,0(ra)
    37d4:	0000feb7          	lui	t4,0xf
    37d8:	00fe8e93          	addi	t4,t4,15 # f00f <end+0x39cf>
    37dc:	00900e13          	li	t3,9
    37e0:	1bd19663          	bne	gp,t4,398c <fail>

000037e4 <test_10>:
    37e4:	00008097          	auipc	ra,0x8
    37e8:	a8408093          	addi	ra,ra,-1404 # b268 <tdat>
    37ec:	fe008093          	addi	ra,ra,-32
    37f0:	0200d183          	lhu	gp,32(ra)
    37f4:	0ff00e93          	li	t4,255
    37f8:	00a00e13          	li	t3,10
    37fc:	19d19863          	bne	gp,t4,398c <fail>

00003800 <test_11>:
    3800:	00008097          	auipc	ra,0x8
    3804:	a6808093          	addi	ra,ra,-1432 # b268 <tdat>
    3808:	ffb08093          	addi	ra,ra,-5
    380c:	0070d183          	lhu	gp,7(ra)
    3810:	00010eb7          	lui	t4,0x10
    3814:	f00e8e93          	addi	t4,t4,-256 # ff00 <end+0x48c0>
    3818:	00b00e13          	li	t3,11
    381c:	17d19863          	bne	gp,t4,398c <fail>

00003820 <test_12>:
    3820:	00c00e13          	li	t3,12
    3824:	00000213          	li	tp,0
    3828:	00008097          	auipc	ra,0x8
    382c:	a4208093          	addi	ra,ra,-1470 # b26a <tdat2>
    3830:	0020d183          	lhu	gp,2(ra)
    3834:	00018313          	mv	t1,gp
    3838:	00001eb7          	lui	t4,0x1
    383c:	ff0e8e93          	addi	t4,t4,-16 # ff0 <test_3+0x18>
    3840:	15d31663          	bne	t1,t4,398c <fail>
    3844:	00120213          	addi	tp,tp,1 # 1 <__boot_address-0x17f>
    3848:	00200293          	li	t0,2
    384c:	fc521ee3          	bne	tp,t0,3828 <test_12+0x8>

00003850 <test_13>:
    3850:	00d00e13          	li	t3,13
    3854:	00000213          	li	tp,0
    3858:	00008097          	auipc	ra,0x8
    385c:	a1408093          	addi	ra,ra,-1516 # b26c <tdat3>
    3860:	0020d183          	lhu	gp,2(ra)
    3864:	00000013          	nop
    3868:	00018313          	mv	t1,gp
    386c:	0000feb7          	lui	t4,0xf
    3870:	00fe8e93          	addi	t4,t4,15 # f00f <end+0x39cf>
    3874:	11d31c63          	bne	t1,t4,398c <fail>
    3878:	00120213          	addi	tp,tp,1 # 1 <__boot_address-0x17f>
    387c:	00200293          	li	t0,2
    3880:	fc521ce3          	bne	tp,t0,3858 <test_13+0x8>

00003884 <test_14>:
    3884:	00e00e13          	li	t3,14
    3888:	00000213          	li	tp,0
    388c:	00008097          	auipc	ra,0x8
    3890:	9dc08093          	addi	ra,ra,-1572 # b268 <tdat>
    3894:	0020d183          	lhu	gp,2(ra)
    3898:	00000013          	nop
    389c:	00000013          	nop
    38a0:	00018313          	mv	t1,gp
    38a4:	00010eb7          	lui	t4,0x10
    38a8:	f00e8e93          	addi	t4,t4,-256 # ff00 <end+0x48c0>
    38ac:	0fd31063          	bne	t1,t4,398c <fail>
    38b0:	00120213          	addi	tp,tp,1 # 1 <__boot_address-0x17f>
    38b4:	00200293          	li	t0,2
    38b8:	fc521ae3          	bne	tp,t0,388c <test_14+0x8>

000038bc <test_15>:
    38bc:	00f00e13          	li	t3,15
    38c0:	00000213          	li	tp,0
    38c4:	00008097          	auipc	ra,0x8
    38c8:	9a608093          	addi	ra,ra,-1626 # b26a <tdat2>
    38cc:	0020d183          	lhu	gp,2(ra)
    38d0:	00001eb7          	lui	t4,0x1
    38d4:	ff0e8e93          	addi	t4,t4,-16 # ff0 <test_3+0x18>
    38d8:	0bd19a63          	bne	gp,t4,398c <fail>
    38dc:	00120213          	addi	tp,tp,1 # 1 <__boot_address-0x17f>
    38e0:	00200293          	li	t0,2
    38e4:	fe5210e3          	bne	tp,t0,38c4 <test_15+0x8>

000038e8 <test_16>:
    38e8:	01000e13          	li	t3,16
    38ec:	00000213          	li	tp,0
    38f0:	00008097          	auipc	ra,0x8
    38f4:	97c08093          	addi	ra,ra,-1668 # b26c <tdat3>
    38f8:	00000013          	nop
    38fc:	0020d183          	lhu	gp,2(ra)
    3900:	0000feb7          	lui	t4,0xf
    3904:	00fe8e93          	addi	t4,t4,15 # f00f <end+0x39cf>
    3908:	09d19263          	bne	gp,t4,398c <fail>
    390c:	00120213          	addi	tp,tp,1 # 1 <__boot_address-0x17f>
    3910:	00200293          	li	t0,2
    3914:	fc521ee3          	bne	tp,t0,38f0 <test_16+0x8>

00003918 <test_17>:
    3918:	01100e13          	li	t3,17
    391c:	00000213          	li	tp,0
    3920:	00008097          	auipc	ra,0x8
    3924:	94808093          	addi	ra,ra,-1720 # b268 <tdat>
    3928:	00000013          	nop
    392c:	00000013          	nop
    3930:	0020d183          	lhu	gp,2(ra)
    3934:	00010eb7          	lui	t4,0x10
    3938:	f00e8e93          	addi	t4,t4,-256 # ff00 <end+0x48c0>
    393c:	05d19863          	bne	gp,t4,398c <fail>
    3940:	00120213          	addi	tp,tp,1 # 1 <__boot_address-0x17f>
    3944:	00200293          	li	t0,2
    3948:	fc521ce3          	bne	tp,t0,3920 <test_17+0x8>

0000394c <test_18>:
    394c:	00008197          	auipc	gp,0x8
    3950:	91c18193          	addi	gp,gp,-1764 # b268 <tdat>
    3954:	0001d103          	lhu	sp,0(gp)
    3958:	00200113          	li	sp,2
    395c:	00200e93          	li	t4,2
    3960:	01200e13          	li	t3,18
    3964:	03d11463          	bne	sp,t4,398c <fail>

00003968 <test_19>:
    3968:	00008197          	auipc	gp,0x8
    396c:	90018193          	addi	gp,gp,-1792 # b268 <tdat>
    3970:	0001d103          	lhu	sp,0(gp)
    3974:	00000013          	nop
    3978:	00200113          	li	sp,2
    397c:	00200e93          	li	t4,2
    3980:	01300e13          	li	t3,19
    3984:	01d11463          	bne	sp,t4,398c <fail>
    3988:	03c01a63          	bne	zero,t3,39bc <pass>

0000398c <fail>:
    398c:	10000537          	lui	a0,0x10000
    3990:	04500593          	li	a1,69
    3994:	05200613          	li	a2,82
    3998:	04f00693          	li	a3,79
    399c:	00a00713          	li	a4,10
    39a0:	00b52023          	sw	a1,0(a0) # 10000000 <end+0xfff49c0>
    39a4:	00c52023          	sw	a2,0(a0)
    39a8:	00c52023          	sw	a2,0(a0)
    39ac:	00d52023          	sw	a3,0(a0)
    39b0:	00c52023          	sw	a2,0(a0)
    39b4:	00e52023          	sw	a4,0(a0)
    39b8:	00100073          	ebreak

000039bc <pass>:
    39bc:	10000537          	lui	a0,0x10000
    39c0:	04f00593          	li	a1,79
    39c4:	04b00613          	li	a2,75
    39c8:	00a00693          	li	a3,10
    39cc:	00b52023          	sw	a1,0(a0) # 10000000 <end+0xfff49c0>
    39d0:	00c52023          	sw	a2,0(a0)
    39d4:	00d52023          	sw	a3,0(a0)
    39d8:	000f0113          	mv	sp,t5
    39dc:	ffc12183          	lw	gp,-4(sp)
    39e0:	ff812083          	lw	ra,-8(sp)
    39e4:	905fc06f          	j	2e8 <lhu_ret>

000039e8 <lui>:
    39e8:	00010f13          	mv	t5,sp
    39ec:	fe312e23          	sw	gp,-4(sp)
    39f0:	fe112c23          	sw	ra,-8(sp)
    39f4:	0000b537          	lui	a0,0xb
    39f8:	28c50513          	addi	a0,a0,652 # b28c <lui_data>
    39fc:	10000637          	lui	a2,0x10000

00003a00 <.prname_next>:
    3a00:	00050583          	lb	a1,0(a0)
    3a04:	00058863          	beqz	a1,3a14 <.prname_done>
    3a08:	00b62023          	sw	a1,0(a2) # 10000000 <end+0xfff49c0>
    3a0c:	00150513          	addi	a0,a0,1
    3a10:	ff1ff06f          	j	3a00 <.prname_next>

00003a14 <.prname_done>:
    3a14:	02e00593          	li	a1,46
    3a18:	00b62023          	sw	a1,0(a2)
    3a1c:	00b62023          	sw	a1,0(a2)

00003a20 <test_2>:
    3a20:	000000b7          	lui	ra,0x0
    3a24:	00000e93          	li	t4,0
    3a28:	00200e13          	li	t3,2
    3a2c:	05d09a63          	bne	ra,t4,3a80 <fail>

00003a30 <test_3>:
    3a30:	fffff0b7          	lui	ra,0xfffff
    3a34:	4010d093          	srai	ra,ra,0x1
    3a38:	80000e93          	li	t4,-2048
    3a3c:	00300e13          	li	t3,3
    3a40:	05d09063          	bne	ra,t4,3a80 <fail>

00003a44 <test_4>:
    3a44:	7ffff0b7          	lui	ra,0x7ffff
    3a48:	4140d093          	srai	ra,ra,0x14
    3a4c:	7ff00e93          	li	t4,2047
    3a50:	00400e13          	li	t3,4
    3a54:	03d09663          	bne	ra,t4,3a80 <fail>

00003a58 <test_5>:
    3a58:	800000b7          	lui	ra,0x80000
    3a5c:	4140d093          	srai	ra,ra,0x14
    3a60:	80000e93          	li	t4,-2048
    3a64:	00500e13          	li	t3,5
    3a68:	01d09c63          	bne	ra,t4,3a80 <fail>

00003a6c <test_6>:
    3a6c:	80000037          	lui	zero,0x80000
    3a70:	00000e93          	li	t4,0
    3a74:	00600e13          	li	t3,6
    3a78:	01d01463          	bne	zero,t4,3a80 <fail>
    3a7c:	03c01a63          	bne	zero,t3,3ab0 <pass>

00003a80 <fail>:
    3a80:	10000537          	lui	a0,0x10000
    3a84:	04500593          	li	a1,69
    3a88:	05200613          	li	a2,82
    3a8c:	04f00693          	li	a3,79
    3a90:	00a00713          	li	a4,10
    3a94:	00b52023          	sw	a1,0(a0) # 10000000 <end+0xfff49c0>
    3a98:	00c52023          	sw	a2,0(a0)
    3a9c:	00c52023          	sw	a2,0(a0)
    3aa0:	00d52023          	sw	a3,0(a0)
    3aa4:	00c52023          	sw	a2,0(a0)
    3aa8:	00e52023          	sw	a4,0(a0)
    3aac:	00100073          	ebreak

00003ab0 <pass>:
    3ab0:	10000537          	lui	a0,0x10000
    3ab4:	04f00593          	li	a1,79
    3ab8:	04b00613          	li	a2,75
    3abc:	00a00693          	li	a3,10
    3ac0:	00b52023          	sw	a1,0(a0) # 10000000 <end+0xfff49c0>
    3ac4:	00c52023          	sw	a2,0(a0)
    3ac8:	00d52023          	sw	a3,0(a0)
    3acc:	000f0113          	mv	sp,t5
    3ad0:	ffc12183          	lw	gp,-4(sp)
    3ad4:	ff812083          	lw	ra,-8(sp)
    3ad8:	f98fc06f          	j	270 <lui_ret>

00003adc <lw>:
    3adc:	00010f13          	mv	t5,sp
    3ae0:	fe312e23          	sw	gp,-4(sp)
    3ae4:	fe112c23          	sw	ra,-8(sp)
    3ae8:	0000b537          	lui	a0,0xb
    3aec:	2ac50513          	addi	a0,a0,684 # b2ac <lw_data>
    3af0:	10000637          	lui	a2,0x10000

00003af4 <.prname_next>:
    3af4:	00050583          	lb	a1,0(a0)
    3af8:	00058863          	beqz	a1,3b08 <.prname_done>
    3afc:	00b62023          	sw	a1,0(a2) # 10000000 <end+0xfff49c0>
    3b00:	00150513          	addi	a0,a0,1
    3b04:	ff1ff06f          	j	3af4 <.prname_next>

00003b08 <.prname_done>:
    3b08:	02e00593          	li	a1,46
    3b0c:	00b62023          	sw	a1,0(a2)
    3b10:	00b62023          	sw	a1,0(a2)

00003b14 <test_2>:
    3b14:	00007097          	auipc	ra,0x7
    3b18:	79c08093          	addi	ra,ra,1948 # b2b0 <tdat>
    3b1c:	0000a183          	lw	gp,0(ra)
    3b20:	00ff0eb7          	lui	t4,0xff0
    3b24:	0ffe8e93          	addi	t4,t4,255 # ff00ff <end+0xfe4abf>
    3b28:	00200e13          	li	t3,2
    3b2c:	27d19a63          	bne	gp,t4,3da0 <fail>

00003b30 <test_3>:
    3b30:	00007097          	auipc	ra,0x7
    3b34:	78008093          	addi	ra,ra,1920 # b2b0 <tdat>
    3b38:	0040a183          	lw	gp,4(ra)
    3b3c:	ff010eb7          	lui	t4,0xff010
    3b40:	f00e8e93          	addi	t4,t4,-256 # ff00ff00 <end+0xff0048c0>
    3b44:	00300e13          	li	t3,3
    3b48:	25d19c63          	bne	gp,t4,3da0 <fail>

00003b4c <test_4>:
    3b4c:	00007097          	auipc	ra,0x7
    3b50:	76408093          	addi	ra,ra,1892 # b2b0 <tdat>
    3b54:	0080a183          	lw	gp,8(ra)
    3b58:	0ff01eb7          	lui	t4,0xff01
    3b5c:	ff0e8e93          	addi	t4,t4,-16 # ff00ff0 <end+0xfef59b0>
    3b60:	00400e13          	li	t3,4
    3b64:	23d19e63          	bne	gp,t4,3da0 <fail>

00003b68 <test_5>:
    3b68:	00007097          	auipc	ra,0x7
    3b6c:	74808093          	addi	ra,ra,1864 # b2b0 <tdat>
    3b70:	00c0a183          	lw	gp,12(ra)
    3b74:	f00ffeb7          	lui	t4,0xf00ff
    3b78:	00fe8e93          	addi	t4,t4,15 # f00ff00f <end+0xf00f39cf>
    3b7c:	00500e13          	li	t3,5
    3b80:	23d19063          	bne	gp,t4,3da0 <fail>

00003b84 <test_6>:
    3b84:	00007097          	auipc	ra,0x7
    3b88:	73808093          	addi	ra,ra,1848 # b2bc <tdat4>
    3b8c:	ff40a183          	lw	gp,-12(ra)
    3b90:	00ff0eb7          	lui	t4,0xff0
    3b94:	0ffe8e93          	addi	t4,t4,255 # ff00ff <end+0xfe4abf>
    3b98:	00600e13          	li	t3,6
    3b9c:	21d19263          	bne	gp,t4,3da0 <fail>

00003ba0 <test_7>:
    3ba0:	00007097          	auipc	ra,0x7
    3ba4:	71c08093          	addi	ra,ra,1820 # b2bc <tdat4>
    3ba8:	ff80a183          	lw	gp,-8(ra)
    3bac:	ff010eb7          	lui	t4,0xff010
    3bb0:	f00e8e93          	addi	t4,t4,-256 # ff00ff00 <end+0xff0048c0>
    3bb4:	00700e13          	li	t3,7
    3bb8:	1fd19463          	bne	gp,t4,3da0 <fail>

00003bbc <test_8>:
    3bbc:	00007097          	auipc	ra,0x7
    3bc0:	70008093          	addi	ra,ra,1792 # b2bc <tdat4>
    3bc4:	ffc0a183          	lw	gp,-4(ra)
    3bc8:	0ff01eb7          	lui	t4,0xff01
    3bcc:	ff0e8e93          	addi	t4,t4,-16 # ff00ff0 <end+0xfef59b0>
    3bd0:	00800e13          	li	t3,8
    3bd4:	1dd19663          	bne	gp,t4,3da0 <fail>

00003bd8 <test_9>:
    3bd8:	00007097          	auipc	ra,0x7
    3bdc:	6e408093          	addi	ra,ra,1764 # b2bc <tdat4>
    3be0:	0000a183          	lw	gp,0(ra)
    3be4:	f00ffeb7          	lui	t4,0xf00ff
    3be8:	00fe8e93          	addi	t4,t4,15 # f00ff00f <end+0xf00f39cf>
    3bec:	00900e13          	li	t3,9
    3bf0:	1bd19863          	bne	gp,t4,3da0 <fail>

00003bf4 <test_10>:
    3bf4:	00007097          	auipc	ra,0x7
    3bf8:	6bc08093          	addi	ra,ra,1724 # b2b0 <tdat>
    3bfc:	fe008093          	addi	ra,ra,-32
    3c00:	0200a183          	lw	gp,32(ra)
    3c04:	00ff0eb7          	lui	t4,0xff0
    3c08:	0ffe8e93          	addi	t4,t4,255 # ff00ff <end+0xfe4abf>
    3c0c:	00a00e13          	li	t3,10
    3c10:	19d19863          	bne	gp,t4,3da0 <fail>

00003c14 <test_11>:
    3c14:	00007097          	auipc	ra,0x7
    3c18:	69c08093          	addi	ra,ra,1692 # b2b0 <tdat>
    3c1c:	ffd08093          	addi	ra,ra,-3
    3c20:	0070a183          	lw	gp,7(ra)
    3c24:	ff010eb7          	lui	t4,0xff010
    3c28:	f00e8e93          	addi	t4,t4,-256 # ff00ff00 <end+0xff0048c0>
    3c2c:	00b00e13          	li	t3,11
    3c30:	17d19863          	bne	gp,t4,3da0 <fail>

00003c34 <test_12>:
    3c34:	00c00e13          	li	t3,12
    3c38:	00000213          	li	tp,0
    3c3c:	00007097          	auipc	ra,0x7
    3c40:	67808093          	addi	ra,ra,1656 # b2b4 <tdat2>
    3c44:	0040a183          	lw	gp,4(ra)
    3c48:	00018313          	mv	t1,gp
    3c4c:	0ff01eb7          	lui	t4,0xff01
    3c50:	ff0e8e93          	addi	t4,t4,-16 # ff00ff0 <end+0xfef59b0>
    3c54:	15d31663          	bne	t1,t4,3da0 <fail>
    3c58:	00120213          	addi	tp,tp,1 # 1 <__boot_address-0x17f>
    3c5c:	00200293          	li	t0,2
    3c60:	fc521ee3          	bne	tp,t0,3c3c <test_12+0x8>

00003c64 <test_13>:
    3c64:	00d00e13          	li	t3,13
    3c68:	00000213          	li	tp,0
    3c6c:	00007097          	auipc	ra,0x7
    3c70:	64c08093          	addi	ra,ra,1612 # b2b8 <tdat3>
    3c74:	0040a183          	lw	gp,4(ra)
    3c78:	00000013          	nop
    3c7c:	00018313          	mv	t1,gp
    3c80:	f00ffeb7          	lui	t4,0xf00ff
    3c84:	00fe8e93          	addi	t4,t4,15 # f00ff00f <end+0xf00f39cf>
    3c88:	11d31c63          	bne	t1,t4,3da0 <fail>
    3c8c:	00120213          	addi	tp,tp,1 # 1 <__boot_address-0x17f>
    3c90:	00200293          	li	t0,2
    3c94:	fc521ce3          	bne	tp,t0,3c6c <test_13+0x8>

00003c98 <test_14>:
    3c98:	00e00e13          	li	t3,14
    3c9c:	00000213          	li	tp,0
    3ca0:	00007097          	auipc	ra,0x7
    3ca4:	61008093          	addi	ra,ra,1552 # b2b0 <tdat>
    3ca8:	0040a183          	lw	gp,4(ra)
    3cac:	00000013          	nop
    3cb0:	00000013          	nop
    3cb4:	00018313          	mv	t1,gp
    3cb8:	ff010eb7          	lui	t4,0xff010
    3cbc:	f00e8e93          	addi	t4,t4,-256 # ff00ff00 <end+0xff0048c0>
    3cc0:	0fd31063          	bne	t1,t4,3da0 <fail>
    3cc4:	00120213          	addi	tp,tp,1 # 1 <__boot_address-0x17f>
    3cc8:	00200293          	li	t0,2
    3ccc:	fc521ae3          	bne	tp,t0,3ca0 <test_14+0x8>

00003cd0 <test_15>:
    3cd0:	00f00e13          	li	t3,15
    3cd4:	00000213          	li	tp,0
    3cd8:	00007097          	auipc	ra,0x7
    3cdc:	5dc08093          	addi	ra,ra,1500 # b2b4 <tdat2>
    3ce0:	0040a183          	lw	gp,4(ra)
    3ce4:	0ff01eb7          	lui	t4,0xff01
    3ce8:	ff0e8e93          	addi	t4,t4,-16 # ff00ff0 <end+0xfef59b0>
    3cec:	0bd19a63          	bne	gp,t4,3da0 <fail>
    3cf0:	00120213          	addi	tp,tp,1 # 1 <__boot_address-0x17f>
    3cf4:	00200293          	li	t0,2
    3cf8:	fe5210e3          	bne	tp,t0,3cd8 <test_15+0x8>

00003cfc <test_16>:
    3cfc:	01000e13          	li	t3,16
    3d00:	00000213          	li	tp,0
    3d04:	00007097          	auipc	ra,0x7
    3d08:	5b408093          	addi	ra,ra,1460 # b2b8 <tdat3>
    3d0c:	00000013          	nop
    3d10:	0040a183          	lw	gp,4(ra)
    3d14:	f00ffeb7          	lui	t4,0xf00ff
    3d18:	00fe8e93          	addi	t4,t4,15 # f00ff00f <end+0xf00f39cf>
    3d1c:	09d19263          	bne	gp,t4,3da0 <fail>
    3d20:	00120213          	addi	tp,tp,1 # 1 <__boot_address-0x17f>
    3d24:	00200293          	li	t0,2
    3d28:	fc521ee3          	bne	tp,t0,3d04 <test_16+0x8>

00003d2c <test_17>:
    3d2c:	01100e13          	li	t3,17
    3d30:	00000213          	li	tp,0
    3d34:	00007097          	auipc	ra,0x7
    3d38:	57c08093          	addi	ra,ra,1404 # b2b0 <tdat>
    3d3c:	00000013          	nop
    3d40:	00000013          	nop
    3d44:	0040a183          	lw	gp,4(ra)
    3d48:	ff010eb7          	lui	t4,0xff010
    3d4c:	f00e8e93          	addi	t4,t4,-256 # ff00ff00 <end+0xff0048c0>
    3d50:	05d19863          	bne	gp,t4,3da0 <fail>
    3d54:	00120213          	addi	tp,tp,1 # 1 <__boot_address-0x17f>
    3d58:	00200293          	li	t0,2
    3d5c:	fc521ce3          	bne	tp,t0,3d34 <test_17+0x8>

00003d60 <test_18>:
    3d60:	00007197          	auipc	gp,0x7
    3d64:	55018193          	addi	gp,gp,1360 # b2b0 <tdat>
    3d68:	0001a103          	lw	sp,0(gp)
    3d6c:	00200113          	li	sp,2
    3d70:	00200e93          	li	t4,2
    3d74:	01200e13          	li	t3,18
    3d78:	03d11463          	bne	sp,t4,3da0 <fail>

00003d7c <test_19>:
    3d7c:	00007197          	auipc	gp,0x7
    3d80:	53418193          	addi	gp,gp,1332 # b2b0 <tdat>
    3d84:	0001a103          	lw	sp,0(gp)
    3d88:	00000013          	nop
    3d8c:	00200113          	li	sp,2
    3d90:	00200e93          	li	t4,2
    3d94:	01300e13          	li	t3,19
    3d98:	01d11463          	bne	sp,t4,3da0 <fail>
    3d9c:	03c01a63          	bne	zero,t3,3dd0 <pass>

00003da0 <fail>:
    3da0:	10000537          	lui	a0,0x10000
    3da4:	04500593          	li	a1,69
    3da8:	05200613          	li	a2,82
    3dac:	04f00693          	li	a3,79
    3db0:	00a00713          	li	a4,10
    3db4:	00b52023          	sw	a1,0(a0) # 10000000 <end+0xfff49c0>
    3db8:	00c52023          	sw	a2,0(a0)
    3dbc:	00c52023          	sw	a2,0(a0)
    3dc0:	00d52023          	sw	a3,0(a0)
    3dc4:	00c52023          	sw	a2,0(a0)
    3dc8:	00e52023          	sw	a4,0(a0)
    3dcc:	00100073          	ebreak

00003dd0 <pass>:
    3dd0:	10000537          	lui	a0,0x10000
    3dd4:	04f00593          	li	a1,79
    3dd8:	04b00613          	li	a2,75
    3ddc:	00a00693          	li	a3,10
    3de0:	00b52023          	sw	a1,0(a0) # 10000000 <end+0xfff49c0>
    3de4:	00c52023          	sw	a2,0(a0)
    3de8:	00d52023          	sw	a3,0(a0)
    3dec:	000f0113          	mv	sp,t5
    3df0:	ffc12183          	lw	gp,-4(sp)
    3df4:	ff812083          	lw	ra,-8(sp)
    3df8:	ce0fc06f          	j	2d8 <lw_ret>

00003dfc <ori>:
    3dfc:	00010f13          	mv	t5,sp
    3e00:	fe312e23          	sw	gp,-4(sp)
    3e04:	fe112c23          	sw	ra,-8(sp)
    3e08:	0000b537          	lui	a0,0xb
    3e0c:	2dc50513          	addi	a0,a0,732 # b2dc <ori_data>
    3e10:	10000637          	lui	a2,0x10000

00003e14 <.prname_next>:
    3e14:	00050583          	lb	a1,0(a0)
    3e18:	00058863          	beqz	a1,3e28 <.prname_done>
    3e1c:	00b62023          	sw	a1,0(a2) # 10000000 <end+0xfff49c0>
    3e20:	00150513          	addi	a0,a0,1
    3e24:	ff1ff06f          	j	3e14 <.prname_next>

00003e28 <.prname_done>:
    3e28:	02e00593          	li	a1,46
    3e2c:	00b62023          	sw	a1,0(a2)
    3e30:	00b62023          	sw	a1,0(a2)

00003e34 <test_2>:
    3e34:	ff0100b7          	lui	ra,0xff010
    3e38:	f0008093          	addi	ra,ra,-256 # ff00ff00 <end+0xff0048c0>
    3e3c:	f0f0e193          	ori	gp,ra,-241
    3e40:	f0f00e93          	li	t4,-241
    3e44:	00200e13          	li	t3,2
    3e48:	1dd19463          	bne	gp,t4,4010 <fail>

00003e4c <test_3>:
    3e4c:	0ff010b7          	lui	ra,0xff01
    3e50:	ff008093          	addi	ra,ra,-16 # ff00ff0 <end+0xfef59b0>
    3e54:	0f00e193          	ori	gp,ra,240
    3e58:	0ff01eb7          	lui	t4,0xff01
    3e5c:	ff0e8e93          	addi	t4,t4,-16 # ff00ff0 <end+0xfef59b0>
    3e60:	00300e13          	li	t3,3
    3e64:	1bd19663          	bne	gp,t4,4010 <fail>

00003e68 <test_4>:
    3e68:	00ff00b7          	lui	ra,0xff0
    3e6c:	0ff08093          	addi	ra,ra,255 # ff00ff <end+0xfe4abf>
    3e70:	70f0e193          	ori	gp,ra,1807
    3e74:	00ff0eb7          	lui	t4,0xff0
    3e78:	7ffe8e93          	addi	t4,t4,2047 # ff07ff <end+0xfe51bf>
    3e7c:	00400e13          	li	t3,4
    3e80:	19d19863          	bne	gp,t4,4010 <fail>

00003e84 <test_5>:
    3e84:	f00ff0b7          	lui	ra,0xf00ff
    3e88:	00f08093          	addi	ra,ra,15 # f00ff00f <end+0xf00f39cf>
    3e8c:	0f00e193          	ori	gp,ra,240
    3e90:	f00ffeb7          	lui	t4,0xf00ff
    3e94:	0ffe8e93          	addi	t4,t4,255 # f00ff0ff <end+0xf00f3abf>
    3e98:	00500e13          	li	t3,5
    3e9c:	17d19a63          	bne	gp,t4,4010 <fail>

00003ea0 <test_6>:
    3ea0:	ff0100b7          	lui	ra,0xff010
    3ea4:	f0008093          	addi	ra,ra,-256 # ff00ff00 <end+0xff0048c0>
    3ea8:	0f00e093          	ori	ra,ra,240
    3eac:	ff010eb7          	lui	t4,0xff010
    3eb0:	ff0e8e93          	addi	t4,t4,-16 # ff00fff0 <end+0xff0049b0>
    3eb4:	00600e13          	li	t3,6
    3eb8:	15d09c63          	bne	ra,t4,4010 <fail>

00003ebc <test_7>:
    3ebc:	00000213          	li	tp,0
    3ec0:	0ff010b7          	lui	ra,0xff01
    3ec4:	ff008093          	addi	ra,ra,-16 # ff00ff0 <end+0xfef59b0>
    3ec8:	0f00e193          	ori	gp,ra,240
    3ecc:	00018313          	mv	t1,gp
    3ed0:	00120213          	addi	tp,tp,1 # 1 <__boot_address-0x17f>
    3ed4:	00200293          	li	t0,2
    3ed8:	fe5214e3          	bne	tp,t0,3ec0 <test_7+0x4>
    3edc:	0ff01eb7          	lui	t4,0xff01
    3ee0:	ff0e8e93          	addi	t4,t4,-16 # ff00ff0 <end+0xfef59b0>
    3ee4:	00700e13          	li	t3,7
    3ee8:	13d31463          	bne	t1,t4,4010 <fail>

00003eec <test_8>:
    3eec:	00000213          	li	tp,0
    3ef0:	00ff00b7          	lui	ra,0xff0
    3ef4:	0ff08093          	addi	ra,ra,255 # ff00ff <end+0xfe4abf>
    3ef8:	70f0e193          	ori	gp,ra,1807
    3efc:	00000013          	nop
    3f00:	00018313          	mv	t1,gp
    3f04:	00120213          	addi	tp,tp,1 # 1 <__boot_address-0x17f>
    3f08:	00200293          	li	t0,2
    3f0c:	fe5212e3          	bne	tp,t0,3ef0 <test_8+0x4>
    3f10:	00ff0eb7          	lui	t4,0xff0
    3f14:	7ffe8e93          	addi	t4,t4,2047 # ff07ff <end+0xfe51bf>
    3f18:	00800e13          	li	t3,8
    3f1c:	0fd31a63          	bne	t1,t4,4010 <fail>

00003f20 <test_9>:
    3f20:	00000213          	li	tp,0
    3f24:	f00ff0b7          	lui	ra,0xf00ff
    3f28:	00f08093          	addi	ra,ra,15 # f00ff00f <end+0xf00f39cf>
    3f2c:	0f00e193          	ori	gp,ra,240
    3f30:	00000013          	nop
    3f34:	00000013          	nop
    3f38:	00018313          	mv	t1,gp
    3f3c:	00120213          	addi	tp,tp,1 # 1 <__boot_address-0x17f>
    3f40:	00200293          	li	t0,2
    3f44:	fe5210e3          	bne	tp,t0,3f24 <test_9+0x4>
    3f48:	f00ffeb7          	lui	t4,0xf00ff
    3f4c:	0ffe8e93          	addi	t4,t4,255 # f00ff0ff <end+0xf00f3abf>
    3f50:	00900e13          	li	t3,9
    3f54:	0bd31e63          	bne	t1,t4,4010 <fail>

00003f58 <test_10>:
    3f58:	00000213          	li	tp,0
    3f5c:	0ff010b7          	lui	ra,0xff01
    3f60:	ff008093          	addi	ra,ra,-16 # ff00ff0 <end+0xfef59b0>
    3f64:	0f00e193          	ori	gp,ra,240
    3f68:	00120213          	addi	tp,tp,1 # 1 <__boot_address-0x17f>
    3f6c:	00200293          	li	t0,2
    3f70:	fe5216e3          	bne	tp,t0,3f5c <test_10+0x4>
    3f74:	0ff01eb7          	lui	t4,0xff01
    3f78:	ff0e8e93          	addi	t4,t4,-16 # ff00ff0 <end+0xfef59b0>
    3f7c:	00a00e13          	li	t3,10
    3f80:	09d19863          	bne	gp,t4,4010 <fail>

00003f84 <test_11>:
    3f84:	00000213          	li	tp,0
    3f88:	00ff00b7          	lui	ra,0xff0
    3f8c:	0ff08093          	addi	ra,ra,255 # ff00ff <end+0xfe4abf>
    3f90:	00000013          	nop
    3f94:	f0f0e193          	ori	gp,ra,-241
    3f98:	00120213          	addi	tp,tp,1 # 1 <__boot_address-0x17f>
    3f9c:	00200293          	li	t0,2
    3fa0:	fe5214e3          	bne	tp,t0,3f88 <test_11+0x4>
    3fa4:	fff00e93          	li	t4,-1
    3fa8:	00b00e13          	li	t3,11
    3fac:	07d19263          	bne	gp,t4,4010 <fail>

00003fb0 <test_12>:
    3fb0:	00000213          	li	tp,0
    3fb4:	f00ff0b7          	lui	ra,0xf00ff
    3fb8:	00f08093          	addi	ra,ra,15 # f00ff00f <end+0xf00f39cf>
    3fbc:	00000013          	nop
    3fc0:	00000013          	nop
    3fc4:	0f00e193          	ori	gp,ra,240
    3fc8:	00120213          	addi	tp,tp,1 # 1 <__boot_address-0x17f>
    3fcc:	00200293          	li	t0,2
    3fd0:	fe5212e3          	bne	tp,t0,3fb4 <test_12+0x4>
    3fd4:	f00ffeb7          	lui	t4,0xf00ff
    3fd8:	0ffe8e93          	addi	t4,t4,255 # f00ff0ff <end+0xf00f3abf>
    3fdc:	00c00e13          	li	t3,12
    3fe0:	03d19863          	bne	gp,t4,4010 <fail>

00003fe4 <test_13>:
    3fe4:	0f006093          	ori	ra,zero,240
    3fe8:	0f000e93          	li	t4,240
    3fec:	00d00e13          	li	t3,13
    3ff0:	03d09063          	bne	ra,t4,4010 <fail>

00003ff4 <test_14>:
    3ff4:	00ff00b7          	lui	ra,0xff0
    3ff8:	0ff08093          	addi	ra,ra,255 # ff00ff <end+0xfe4abf>
    3ffc:	70f0e013          	ori	zero,ra,1807
    4000:	00000e93          	li	t4,0
    4004:	00e00e13          	li	t3,14
    4008:	01d01463          	bne	zero,t4,4010 <fail>
    400c:	03c01a63          	bne	zero,t3,4040 <pass>

00004010 <fail>:
    4010:	10000537          	lui	a0,0x10000
    4014:	04500593          	li	a1,69
    4018:	05200613          	li	a2,82
    401c:	04f00693          	li	a3,79
    4020:	00a00713          	li	a4,10
    4024:	00b52023          	sw	a1,0(a0) # 10000000 <end+0xfff49c0>
    4028:	00c52023          	sw	a2,0(a0)
    402c:	00c52023          	sw	a2,0(a0)
    4030:	00d52023          	sw	a3,0(a0)
    4034:	00c52023          	sw	a2,0(a0)
    4038:	00e52023          	sw	a4,0(a0)
    403c:	00100073          	ebreak

00004040 <pass>:
    4040:	10000537          	lui	a0,0x10000
    4044:	04f00593          	li	a1,79
    4048:	04b00613          	li	a2,75
    404c:	00a00693          	li	a3,10
    4050:	00b52023          	sw	a1,0(a0) # 10000000 <end+0xfff49c0>
    4054:	00c52023          	sw	a2,0(a0)
    4058:	00d52023          	sw	a3,0(a0)
    405c:	000f0113          	mv	sp,t5
    4060:	ffc12183          	lw	gp,-4(sp)
    4064:	ff812083          	lw	ra,-8(sp)
    4068:	ab8fc06f          	j	320 <ori_ret>

0000406c <or>:
    406c:	00010f13          	mv	t5,sp
    4070:	fe312e23          	sw	gp,-4(sp)
    4074:	fe112c23          	sw	ra,-8(sp)
    4078:	0000b537          	lui	a0,0xb
    407c:	2fc50513          	addi	a0,a0,764 # b2fc <or_data>
    4080:	10000637          	lui	a2,0x10000

00004084 <.prname_next>:
    4084:	00050583          	lb	a1,0(a0)
    4088:	00058863          	beqz	a1,4098 <.prname_done>
    408c:	00b62023          	sw	a1,0(a2) # 10000000 <end+0xfff49c0>
    4090:	00150513          	addi	a0,a0,1
    4094:	ff1ff06f          	j	4084 <.prname_next>

00004098 <.prname_done>:
    4098:	02e00593          	li	a1,46
    409c:	00b62023          	sw	a1,0(a2)
    40a0:	00b62023          	sw	a1,0(a2)

000040a4 <test_2>:
    40a4:	ff0100b7          	lui	ra,0xff010
    40a8:	f0008093          	addi	ra,ra,-256 # ff00ff00 <end+0xff0048c0>
    40ac:	0f0f1137          	lui	sp,0xf0f1
    40b0:	f0f10113          	addi	sp,sp,-241 # f0f0f0f <end+0xf0e58cf>
    40b4:	0020e1b3          	or	gp,ra,sp
    40b8:	ff100eb7          	lui	t4,0xff100
    40bc:	f0fe8e93          	addi	t4,t4,-241 # ff0fff0f <end+0xff0f48cf>
    40c0:	00200e13          	li	t3,2
    40c4:	4bd19263          	bne	gp,t4,4568 <fail>

000040c8 <test_3>:
    40c8:	0ff010b7          	lui	ra,0xff01
    40cc:	ff008093          	addi	ra,ra,-16 # ff00ff0 <end+0xfef59b0>
    40d0:	f0f0f137          	lui	sp,0xf0f0f
    40d4:	0f010113          	addi	sp,sp,240 # f0f0f0f0 <end+0xf0f03ab0>
    40d8:	0020e1b3          	or	gp,ra,sp
    40dc:	fff10eb7          	lui	t4,0xfff10
    40e0:	ff0e8e93          	addi	t4,t4,-16 # fff0fff0 <end+0xfff049b0>
    40e4:	00300e13          	li	t3,3
    40e8:	49d19063          	bne	gp,t4,4568 <fail>

000040ec <test_4>:
    40ec:	00ff00b7          	lui	ra,0xff0
    40f0:	0ff08093          	addi	ra,ra,255 # ff00ff <end+0xfe4abf>
    40f4:	0f0f1137          	lui	sp,0xf0f1
    40f8:	f0f10113          	addi	sp,sp,-241 # f0f0f0f <end+0xf0e58cf>
    40fc:	0020e1b3          	or	gp,ra,sp
    4100:	0fff1eb7          	lui	t4,0xfff1
    4104:	fffe8e93          	addi	t4,t4,-1 # fff0fff <end+0xffe59bf>
    4108:	00400e13          	li	t3,4
    410c:	45d19e63          	bne	gp,t4,4568 <fail>

00004110 <test_5>:
    4110:	f00ff0b7          	lui	ra,0xf00ff
    4114:	00f08093          	addi	ra,ra,15 # f00ff00f <end+0xf00f39cf>
    4118:	f0f0f137          	lui	sp,0xf0f0f
    411c:	0f010113          	addi	sp,sp,240 # f0f0f0f0 <end+0xf0f03ab0>
    4120:	0020e1b3          	or	gp,ra,sp
    4124:	f0fffeb7          	lui	t4,0xf0fff
    4128:	0ffe8e93          	addi	t4,t4,255 # f0fff0ff <end+0xf0ff3abf>
    412c:	00500e13          	li	t3,5
    4130:	43d19c63          	bne	gp,t4,4568 <fail>

00004134 <test_6>:
    4134:	ff0100b7          	lui	ra,0xff010
    4138:	f0008093          	addi	ra,ra,-256 # ff00ff00 <end+0xff0048c0>
    413c:	0f0f1137          	lui	sp,0xf0f1
    4140:	f0f10113          	addi	sp,sp,-241 # f0f0f0f <end+0xf0e58cf>
    4144:	0020e0b3          	or	ra,ra,sp
    4148:	ff100eb7          	lui	t4,0xff100
    414c:	f0fe8e93          	addi	t4,t4,-241 # ff0fff0f <end+0xff0f48cf>
    4150:	00600e13          	li	t3,6
    4154:	41d09a63          	bne	ra,t4,4568 <fail>

00004158 <test_7>:
    4158:	ff0100b7          	lui	ra,0xff010
    415c:	f0008093          	addi	ra,ra,-256 # ff00ff00 <end+0xff0048c0>
    4160:	0f0f1137          	lui	sp,0xf0f1
    4164:	f0f10113          	addi	sp,sp,-241 # f0f0f0f <end+0xf0e58cf>
    4168:	0020e133          	or	sp,ra,sp
    416c:	ff100eb7          	lui	t4,0xff100
    4170:	f0fe8e93          	addi	t4,t4,-241 # ff0fff0f <end+0xff0f48cf>
    4174:	00700e13          	li	t3,7
    4178:	3fd11863          	bne	sp,t4,4568 <fail>

0000417c <test_8>:
    417c:	ff0100b7          	lui	ra,0xff010
    4180:	f0008093          	addi	ra,ra,-256 # ff00ff00 <end+0xff0048c0>
    4184:	0010e0b3          	or	ra,ra,ra
    4188:	ff010eb7          	lui	t4,0xff010
    418c:	f00e8e93          	addi	t4,t4,-256 # ff00ff00 <end+0xff0048c0>
    4190:	00800e13          	li	t3,8
    4194:	3dd09a63          	bne	ra,t4,4568 <fail>

00004198 <test_9>:
    4198:	00000213          	li	tp,0
    419c:	ff0100b7          	lui	ra,0xff010
    41a0:	f0008093          	addi	ra,ra,-256 # ff00ff00 <end+0xff0048c0>
    41a4:	0f0f1137          	lui	sp,0xf0f1
    41a8:	f0f10113          	addi	sp,sp,-241 # f0f0f0f <end+0xf0e58cf>
    41ac:	0020e1b3          	or	gp,ra,sp
    41b0:	00018313          	mv	t1,gp
    41b4:	00120213          	addi	tp,tp,1 # 1 <__boot_address-0x17f>
    41b8:	00200293          	li	t0,2
    41bc:	fe5210e3          	bne	tp,t0,419c <test_9+0x4>
    41c0:	ff100eb7          	lui	t4,0xff100
    41c4:	f0fe8e93          	addi	t4,t4,-241 # ff0fff0f <end+0xff0f48cf>
    41c8:	00900e13          	li	t3,9
    41cc:	39d31e63          	bne	t1,t4,4568 <fail>

000041d0 <test_10>:
    41d0:	00000213          	li	tp,0
    41d4:	0ff010b7          	lui	ra,0xff01
    41d8:	ff008093          	addi	ra,ra,-16 # ff00ff0 <end+0xfef59b0>
    41dc:	f0f0f137          	lui	sp,0xf0f0f
    41e0:	0f010113          	addi	sp,sp,240 # f0f0f0f0 <end+0xf0f03ab0>
    41e4:	0020e1b3          	or	gp,ra,sp
    41e8:	00000013          	nop
    41ec:	00018313          	mv	t1,gp
    41f0:	00120213          	addi	tp,tp,1 # 1 <__boot_address-0x17f>
    41f4:	00200293          	li	t0,2
    41f8:	fc521ee3          	bne	tp,t0,41d4 <test_10+0x4>
    41fc:	fff10eb7          	lui	t4,0xfff10
    4200:	ff0e8e93          	addi	t4,t4,-16 # fff0fff0 <end+0xfff049b0>
    4204:	00a00e13          	li	t3,10
    4208:	37d31063          	bne	t1,t4,4568 <fail>

0000420c <test_11>:
    420c:	00000213          	li	tp,0
    4210:	00ff00b7          	lui	ra,0xff0
    4214:	0ff08093          	addi	ra,ra,255 # ff00ff <end+0xfe4abf>
    4218:	0f0f1137          	lui	sp,0xf0f1
    421c:	f0f10113          	addi	sp,sp,-241 # f0f0f0f <end+0xf0e58cf>
    4220:	0020e1b3          	or	gp,ra,sp
    4224:	00000013          	nop
    4228:	00000013          	nop
    422c:	00018313          	mv	t1,gp
    4230:	00120213          	addi	tp,tp,1 # 1 <__boot_address-0x17f>
    4234:	00200293          	li	t0,2
    4238:	fc521ce3          	bne	tp,t0,4210 <test_11+0x4>
    423c:	0fff1eb7          	lui	t4,0xfff1
    4240:	fffe8e93          	addi	t4,t4,-1 # fff0fff <end+0xffe59bf>
    4244:	00b00e13          	li	t3,11
    4248:	33d31063          	bne	t1,t4,4568 <fail>

0000424c <test_12>:
    424c:	00000213          	li	tp,0
    4250:	ff0100b7          	lui	ra,0xff010
    4254:	f0008093          	addi	ra,ra,-256 # ff00ff00 <end+0xff0048c0>
    4258:	0f0f1137          	lui	sp,0xf0f1
    425c:	f0f10113          	addi	sp,sp,-241 # f0f0f0f <end+0xf0e58cf>
    4260:	0020e1b3          	or	gp,ra,sp
    4264:	00120213          	addi	tp,tp,1 # 1 <__boot_address-0x17f>
    4268:	00200293          	li	t0,2
    426c:	fe5212e3          	bne	tp,t0,4250 <test_12+0x4>
    4270:	ff100eb7          	lui	t4,0xff100
    4274:	f0fe8e93          	addi	t4,t4,-241 # ff0fff0f <end+0xff0f48cf>
    4278:	00c00e13          	li	t3,12
    427c:	2fd19663          	bne	gp,t4,4568 <fail>

00004280 <test_13>:
    4280:	00000213          	li	tp,0
    4284:	0ff010b7          	lui	ra,0xff01
    4288:	ff008093          	addi	ra,ra,-16 # ff00ff0 <end+0xfef59b0>
    428c:	f0f0f137          	lui	sp,0xf0f0f
    4290:	0f010113          	addi	sp,sp,240 # f0f0f0f0 <end+0xf0f03ab0>
    4294:	00000013          	nop
    4298:	0020e1b3          	or	gp,ra,sp
    429c:	00120213          	addi	tp,tp,1 # 1 <__boot_address-0x17f>
    42a0:	00200293          	li	t0,2
    42a4:	fe5210e3          	bne	tp,t0,4284 <test_13+0x4>
    42a8:	fff10eb7          	lui	t4,0xfff10
    42ac:	ff0e8e93          	addi	t4,t4,-16 # fff0fff0 <end+0xfff049b0>
    42b0:	00d00e13          	li	t3,13
    42b4:	2bd19a63          	bne	gp,t4,4568 <fail>

000042b8 <test_14>:
    42b8:	00000213          	li	tp,0
    42bc:	00ff00b7          	lui	ra,0xff0
    42c0:	0ff08093          	addi	ra,ra,255 # ff00ff <end+0xfe4abf>
    42c4:	0f0f1137          	lui	sp,0xf0f1
    42c8:	f0f10113          	addi	sp,sp,-241 # f0f0f0f <end+0xf0e58cf>
    42cc:	00000013          	nop
    42d0:	00000013          	nop
    42d4:	0020e1b3          	or	gp,ra,sp
    42d8:	00120213          	addi	tp,tp,1 # 1 <__boot_address-0x17f>
    42dc:	00200293          	li	t0,2
    42e0:	fc521ee3          	bne	tp,t0,42bc <test_14+0x4>
    42e4:	0fff1eb7          	lui	t4,0xfff1
    42e8:	fffe8e93          	addi	t4,t4,-1 # fff0fff <end+0xffe59bf>
    42ec:	00e00e13          	li	t3,14
    42f0:	27d19c63          	bne	gp,t4,4568 <fail>

000042f4 <test_15>:
    42f4:	00000213          	li	tp,0
    42f8:	ff0100b7          	lui	ra,0xff010
    42fc:	f0008093          	addi	ra,ra,-256 # ff00ff00 <end+0xff0048c0>
    4300:	00000013          	nop
    4304:	0f0f1137          	lui	sp,0xf0f1
    4308:	f0f10113          	addi	sp,sp,-241 # f0f0f0f <end+0xf0e58cf>
    430c:	0020e1b3          	or	gp,ra,sp
    4310:	00120213          	addi	tp,tp,1 # 1 <__boot_address-0x17f>
    4314:	00200293          	li	t0,2
    4318:	fe5210e3          	bne	tp,t0,42f8 <test_15+0x4>
    431c:	ff100eb7          	lui	t4,0xff100
    4320:	f0fe8e93          	addi	t4,t4,-241 # ff0fff0f <end+0xff0f48cf>
    4324:	00f00e13          	li	t3,15
    4328:	25d19063          	bne	gp,t4,4568 <fail>

0000432c <test_16>:
    432c:	00000213          	li	tp,0
    4330:	0ff010b7          	lui	ra,0xff01
    4334:	ff008093          	addi	ra,ra,-16 # ff00ff0 <end+0xfef59b0>
    4338:	00000013          	nop
    433c:	f0f0f137          	lui	sp,0xf0f0f
    4340:	0f010113          	addi	sp,sp,240 # f0f0f0f0 <end+0xf0f03ab0>
    4344:	00000013          	nop
    4348:	0020e1b3          	or	gp,ra,sp
    434c:	00120213          	addi	tp,tp,1 # 1 <__boot_address-0x17f>
    4350:	00200293          	li	t0,2
    4354:	fc521ee3          	bne	tp,t0,4330 <test_16+0x4>
    4358:	fff10eb7          	lui	t4,0xfff10
    435c:	ff0e8e93          	addi	t4,t4,-16 # fff0fff0 <end+0xfff049b0>
    4360:	01000e13          	li	t3,16
    4364:	21d19263          	bne	gp,t4,4568 <fail>

00004368 <test_17>:
    4368:	00000213          	li	tp,0
    436c:	00ff00b7          	lui	ra,0xff0
    4370:	0ff08093          	addi	ra,ra,255 # ff00ff <end+0xfe4abf>
    4374:	00000013          	nop
    4378:	00000013          	nop
    437c:	0f0f1137          	lui	sp,0xf0f1
    4380:	f0f10113          	addi	sp,sp,-241 # f0f0f0f <end+0xf0e58cf>
    4384:	0020e1b3          	or	gp,ra,sp
    4388:	00120213          	addi	tp,tp,1 # 1 <__boot_address-0x17f>
    438c:	00200293          	li	t0,2
    4390:	fc521ee3          	bne	tp,t0,436c <test_17+0x4>
    4394:	0fff1eb7          	lui	t4,0xfff1
    4398:	fffe8e93          	addi	t4,t4,-1 # fff0fff <end+0xffe59bf>
    439c:	01100e13          	li	t3,17
    43a0:	1dd19463          	bne	gp,t4,4568 <fail>

000043a4 <test_18>:
    43a4:	00000213          	li	tp,0
    43a8:	0f0f1137          	lui	sp,0xf0f1
    43ac:	f0f10113          	addi	sp,sp,-241 # f0f0f0f <end+0xf0e58cf>
    43b0:	ff0100b7          	lui	ra,0xff010
    43b4:	f0008093          	addi	ra,ra,-256 # ff00ff00 <end+0xff0048c0>
    43b8:	0020e1b3          	or	gp,ra,sp
    43bc:	00120213          	addi	tp,tp,1 # 1 <__boot_address-0x17f>
    43c0:	00200293          	li	t0,2
    43c4:	fe5212e3          	bne	tp,t0,43a8 <test_18+0x4>
    43c8:	ff100eb7          	lui	t4,0xff100
    43cc:	f0fe8e93          	addi	t4,t4,-241 # ff0fff0f <end+0xff0f48cf>
    43d0:	01200e13          	li	t3,18
    43d4:	19d19a63          	bne	gp,t4,4568 <fail>

000043d8 <test_19>:
    43d8:	00000213          	li	tp,0
    43dc:	f0f0f137          	lui	sp,0xf0f0f
    43e0:	0f010113          	addi	sp,sp,240 # f0f0f0f0 <end+0xf0f03ab0>
    43e4:	0ff010b7          	lui	ra,0xff01
    43e8:	ff008093          	addi	ra,ra,-16 # ff00ff0 <end+0xfef59b0>
    43ec:	00000013          	nop
    43f0:	0020e1b3          	or	gp,ra,sp
    43f4:	00120213          	addi	tp,tp,1 # 1 <__boot_address-0x17f>
    43f8:	00200293          	li	t0,2
    43fc:	fe5210e3          	bne	tp,t0,43dc <test_19+0x4>
    4400:	fff10eb7          	lui	t4,0xfff10
    4404:	ff0e8e93          	addi	t4,t4,-16 # fff0fff0 <end+0xfff049b0>
    4408:	01300e13          	li	t3,19
    440c:	15d19e63          	bne	gp,t4,4568 <fail>

00004410 <test_20>:
    4410:	00000213          	li	tp,0
    4414:	0f0f1137          	lui	sp,0xf0f1
    4418:	f0f10113          	addi	sp,sp,-241 # f0f0f0f <end+0xf0e58cf>
    441c:	00ff00b7          	lui	ra,0xff0
    4420:	0ff08093          	addi	ra,ra,255 # ff00ff <end+0xfe4abf>
    4424:	00000013          	nop
    4428:	00000013          	nop
    442c:	0020e1b3          	or	gp,ra,sp
    4430:	00120213          	addi	tp,tp,1 # 1 <__boot_address-0x17f>
    4434:	00200293          	li	t0,2
    4438:	fc521ee3          	bne	tp,t0,4414 <test_20+0x4>
    443c:	0fff1eb7          	lui	t4,0xfff1
    4440:	fffe8e93          	addi	t4,t4,-1 # fff0fff <end+0xffe59bf>
    4444:	01400e13          	li	t3,20
    4448:	13d19063          	bne	gp,t4,4568 <fail>

0000444c <test_21>:
    444c:	00000213          	li	tp,0
    4450:	0f0f1137          	lui	sp,0xf0f1
    4454:	f0f10113          	addi	sp,sp,-241 # f0f0f0f <end+0xf0e58cf>
    4458:	00000013          	nop
    445c:	ff0100b7          	lui	ra,0xff010
    4460:	f0008093          	addi	ra,ra,-256 # ff00ff00 <end+0xff0048c0>
    4464:	0020e1b3          	or	gp,ra,sp
    4468:	00120213          	addi	tp,tp,1 # 1 <__boot_address-0x17f>
    446c:	00200293          	li	t0,2
    4470:	fe5210e3          	bne	tp,t0,4450 <test_21+0x4>
    4474:	ff100eb7          	lui	t4,0xff100
    4478:	f0fe8e93          	addi	t4,t4,-241 # ff0fff0f <end+0xff0f48cf>
    447c:	01500e13          	li	t3,21
    4480:	0fd19463          	bne	gp,t4,4568 <fail>

00004484 <test_22>:
    4484:	00000213          	li	tp,0
    4488:	f0f0f137          	lui	sp,0xf0f0f
    448c:	0f010113          	addi	sp,sp,240 # f0f0f0f0 <end+0xf0f03ab0>
    4490:	00000013          	nop
    4494:	0ff010b7          	lui	ra,0xff01
    4498:	ff008093          	addi	ra,ra,-16 # ff00ff0 <end+0xfef59b0>
    449c:	00000013          	nop
    44a0:	0020e1b3          	or	gp,ra,sp
    44a4:	00120213          	addi	tp,tp,1 # 1 <__boot_address-0x17f>
    44a8:	00200293          	li	t0,2
    44ac:	fc521ee3          	bne	tp,t0,4488 <test_22+0x4>
    44b0:	fff10eb7          	lui	t4,0xfff10
    44b4:	ff0e8e93          	addi	t4,t4,-16 # fff0fff0 <end+0xfff049b0>
    44b8:	01600e13          	li	t3,22
    44bc:	0bd19663          	bne	gp,t4,4568 <fail>

000044c0 <test_23>:
    44c0:	00000213          	li	tp,0
    44c4:	0f0f1137          	lui	sp,0xf0f1
    44c8:	f0f10113          	addi	sp,sp,-241 # f0f0f0f <end+0xf0e58cf>
    44cc:	00000013          	nop
    44d0:	00000013          	nop
    44d4:	00ff00b7          	lui	ra,0xff0
    44d8:	0ff08093          	addi	ra,ra,255 # ff00ff <end+0xfe4abf>
    44dc:	0020e1b3          	or	gp,ra,sp
    44e0:	00120213          	addi	tp,tp,1 # 1 <__boot_address-0x17f>
    44e4:	00200293          	li	t0,2
    44e8:	fc521ee3          	bne	tp,t0,44c4 <test_23+0x4>
    44ec:	0fff1eb7          	lui	t4,0xfff1
    44f0:	fffe8e93          	addi	t4,t4,-1 # fff0fff <end+0xffe59bf>
    44f4:	01700e13          	li	t3,23
    44f8:	07d19863          	bne	gp,t4,4568 <fail>

000044fc <test_24>:
    44fc:	ff0100b7          	lui	ra,0xff010
    4500:	f0008093          	addi	ra,ra,-256 # ff00ff00 <end+0xff0048c0>
    4504:	00106133          	or	sp,zero,ra
    4508:	ff010eb7          	lui	t4,0xff010
    450c:	f00e8e93          	addi	t4,t4,-256 # ff00ff00 <end+0xff0048c0>
    4510:	01800e13          	li	t3,24
    4514:	05d11a63          	bne	sp,t4,4568 <fail>

00004518 <test_25>:
    4518:	00ff00b7          	lui	ra,0xff0
    451c:	0ff08093          	addi	ra,ra,255 # ff00ff <end+0xfe4abf>
    4520:	0000e133          	or	sp,ra,zero
    4524:	00ff0eb7          	lui	t4,0xff0
    4528:	0ffe8e93          	addi	t4,t4,255 # ff00ff <end+0xfe4abf>
    452c:	01900e13          	li	t3,25
    4530:	03d11c63          	bne	sp,t4,4568 <fail>

00004534 <test_26>:
    4534:	000060b3          	or	ra,zero,zero
    4538:	00000e93          	li	t4,0
    453c:	01a00e13          	li	t3,26
    4540:	03d09463          	bne	ra,t4,4568 <fail>

00004544 <test_27>:
    4544:	111110b7          	lui	ra,0x11111
    4548:	11108093          	addi	ra,ra,273 # 11111111 <end+0x11105ad1>
    454c:	22222137          	lui	sp,0x22222
    4550:	22210113          	addi	sp,sp,546 # 22222222 <end+0x22216be2>
    4554:	0020e033          	or	zero,ra,sp
    4558:	00000e93          	li	t4,0
    455c:	01b00e13          	li	t3,27
    4560:	01d01463          	bne	zero,t4,4568 <fail>
    4564:	03c01a63          	bne	zero,t3,4598 <pass>

00004568 <fail>:
    4568:	10000537          	lui	a0,0x10000
    456c:	04500593          	li	a1,69
    4570:	05200613          	li	a2,82
    4574:	04f00693          	li	a3,79
    4578:	00a00713          	li	a4,10
    457c:	00b52023          	sw	a1,0(a0) # 10000000 <end+0xfff49c0>
    4580:	00c52023          	sw	a2,0(a0)
    4584:	00c52023          	sw	a2,0(a0)
    4588:	00d52023          	sw	a3,0(a0)
    458c:	00c52023          	sw	a2,0(a0)
    4590:	00e52023          	sw	a4,0(a0)
    4594:	00100073          	ebreak

00004598 <pass>:
    4598:	10000537          	lui	a0,0x10000
    459c:	04f00593          	li	a1,79
    45a0:	04b00613          	li	a2,75
    45a4:	00a00693          	li	a3,10
    45a8:	00b52023          	sw	a1,0(a0) # 10000000 <end+0xfff49c0>
    45ac:	00c52023          	sw	a2,0(a0)
    45b0:	00d52023          	sw	a3,0(a0)
    45b4:	000f0113          	mv	sp,t5
    45b8:	ffc12183          	lw	gp,-4(sp)
    45bc:	ff812083          	lw	ra,-8(sp)
    45c0:	dc1fb06f          	j	380 <or_ret>

000045c4 <sb>:
    45c4:	00010f13          	mv	t5,sp
    45c8:	fe312e23          	sw	gp,-4(sp)
    45cc:	fe112c23          	sw	ra,-8(sp)
    45d0:	0000b537          	lui	a0,0xb
    45d4:	31c50513          	addi	a0,a0,796 # b31c <sb_data>
    45d8:	10000637          	lui	a2,0x10000

000045dc <.prname_next>:
    45dc:	00050583          	lb	a1,0(a0)
    45e0:	00058863          	beqz	a1,45f0 <.prname_done>
    45e4:	00b62023          	sw	a1,0(a2) # 10000000 <end+0xfff49c0>
    45e8:	00150513          	addi	a0,a0,1
    45ec:	ff1ff06f          	j	45dc <.prname_next>

000045f0 <.prname_done>:
    45f0:	02e00593          	li	a1,46
    45f4:	00b62023          	sw	a1,0(a2)
    45f8:	00b62023          	sw	a1,0(a2)

000045fc <test_2>:
    45fc:	00007097          	auipc	ra,0x7
    4600:	d2408093          	addi	ra,ra,-732 # b320 <tdat>
    4604:	faa00113          	li	sp,-86
    4608:	00208023          	sb	sp,0(ra)
    460c:	00008183          	lb	gp,0(ra)
    4610:	faa00e93          	li	t4,-86
    4614:	00200e13          	li	t3,2
    4618:	3dd19c63          	bne	gp,t4,49f0 <fail>

0000461c <test_3>:
    461c:	00007097          	auipc	ra,0x7
    4620:	d0408093          	addi	ra,ra,-764 # b320 <tdat>
    4624:	00000113          	li	sp,0
    4628:	002080a3          	sb	sp,1(ra)
    462c:	00108183          	lb	gp,1(ra)
    4630:	00000e93          	li	t4,0
    4634:	00300e13          	li	t3,3
    4638:	3bd19c63          	bne	gp,t4,49f0 <fail>

0000463c <test_4>:
    463c:	00007097          	auipc	ra,0x7
    4640:	ce408093          	addi	ra,ra,-796 # b320 <tdat>
    4644:	fffff137          	lui	sp,0xfffff
    4648:	fa010113          	addi	sp,sp,-96 # ffffefa0 <end+0xffff3960>
    464c:	00208123          	sb	sp,2(ra)
    4650:	00209183          	lh	gp,2(ra)
    4654:	fffffeb7          	lui	t4,0xfffff
    4658:	fa0e8e93          	addi	t4,t4,-96 # ffffefa0 <end+0xffff3960>
    465c:	00400e13          	li	t3,4
    4660:	39d19863          	bne	gp,t4,49f0 <fail>

00004664 <test_5>:
    4664:	00007097          	auipc	ra,0x7
    4668:	cbc08093          	addi	ra,ra,-836 # b320 <tdat>
    466c:	00a00113          	li	sp,10
    4670:	002081a3          	sb	sp,3(ra)
    4674:	00308183          	lb	gp,3(ra)
    4678:	00a00e93          	li	t4,10
    467c:	00500e13          	li	t3,5
    4680:	37d19863          	bne	gp,t4,49f0 <fail>

00004684 <test_6>:
    4684:	00007097          	auipc	ra,0x7
    4688:	ca308093          	addi	ra,ra,-861 # b327 <tdat8>
    468c:	faa00113          	li	sp,-86
    4690:	fe208ea3          	sb	sp,-3(ra)
    4694:	ffd08183          	lb	gp,-3(ra)
    4698:	faa00e93          	li	t4,-86
    469c:	00600e13          	li	t3,6
    46a0:	35d19863          	bne	gp,t4,49f0 <fail>

000046a4 <test_7>:
    46a4:	00007097          	auipc	ra,0x7
    46a8:	c8308093          	addi	ra,ra,-893 # b327 <tdat8>
    46ac:	00000113          	li	sp,0
    46b0:	fe208f23          	sb	sp,-2(ra)
    46b4:	ffe08183          	lb	gp,-2(ra)
    46b8:	00000e93          	li	t4,0
    46bc:	00700e13          	li	t3,7
    46c0:	33d19863          	bne	gp,t4,49f0 <fail>

000046c4 <test_8>:
    46c4:	00007097          	auipc	ra,0x7
    46c8:	c6308093          	addi	ra,ra,-925 # b327 <tdat8>
    46cc:	fa000113          	li	sp,-96
    46d0:	fe208fa3          	sb	sp,-1(ra)
    46d4:	fff08183          	lb	gp,-1(ra)
    46d8:	fa000e93          	li	t4,-96
    46dc:	00800e13          	li	t3,8
    46e0:	31d19863          	bne	gp,t4,49f0 <fail>

000046e4 <test_9>:
    46e4:	00007097          	auipc	ra,0x7
    46e8:	c4308093          	addi	ra,ra,-957 # b327 <tdat8>
    46ec:	00a00113          	li	sp,10
    46f0:	00208023          	sb	sp,0(ra)
    46f4:	00008183          	lb	gp,0(ra)
    46f8:	00a00e93          	li	t4,10
    46fc:	00900e13          	li	t3,9
    4700:	2fd19863          	bne	gp,t4,49f0 <fail>

00004704 <test_10>:
    4704:	00007097          	auipc	ra,0x7
    4708:	c2408093          	addi	ra,ra,-988 # b328 <tdat9>
    470c:	12345137          	lui	sp,0x12345
    4710:	67810113          	addi	sp,sp,1656 # 12345678 <end+0x1233a038>
    4714:	fe008213          	addi	tp,ra,-32
    4718:	02220023          	sb	sp,32(tp) # 20 <__boot_address-0x160>
    471c:	00008183          	lb	gp,0(ra)
    4720:	07800e93          	li	t4,120
    4724:	00a00e13          	li	t3,10
    4728:	2dd19463          	bne	gp,t4,49f0 <fail>

0000472c <test_11>:
    472c:	00007097          	auipc	ra,0x7
    4730:	bfc08093          	addi	ra,ra,-1028 # b328 <tdat9>
    4734:	00003137          	lui	sp,0x3
    4738:	09810113          	addi	sp,sp,152 # 3098 <fail>
    473c:	ffa08093          	addi	ra,ra,-6
    4740:	002083a3          	sb	sp,7(ra)
    4744:	00007217          	auipc	tp,0x7
    4748:	be520213          	addi	tp,tp,-1051 # b329 <tdat10>
    474c:	00020183          	lb	gp,0(tp) # 0 <__boot_address-0x180>
    4750:	f9800e93          	li	t4,-104
    4754:	00b00e13          	li	t3,11
    4758:	29d19c63          	bne	gp,t4,49f0 <fail>

0000475c <test_12>:
    475c:	00c00e13          	li	t3,12
    4760:	00000213          	li	tp,0
    4764:	fdd00093          	li	ra,-35
    4768:	00007117          	auipc	sp,0x7
    476c:	bb810113          	addi	sp,sp,-1096 # b320 <tdat>
    4770:	00110023          	sb	ra,0(sp)
    4774:	00010183          	lb	gp,0(sp)
    4778:	fdd00e93          	li	t4,-35
    477c:	27d19a63          	bne	gp,t4,49f0 <fail>
    4780:	00120213          	addi	tp,tp,1 # 1 <__boot_address-0x17f>
    4784:	00200293          	li	t0,2
    4788:	fc521ee3          	bne	tp,t0,4764 <test_12+0x8>

0000478c <test_13>:
    478c:	00d00e13          	li	t3,13
    4790:	00000213          	li	tp,0
    4794:	fcd00093          	li	ra,-51
    4798:	00007117          	auipc	sp,0x7
    479c:	b8810113          	addi	sp,sp,-1144 # b320 <tdat>
    47a0:	00000013          	nop
    47a4:	001100a3          	sb	ra,1(sp)
    47a8:	00110183          	lb	gp,1(sp)
    47ac:	fcd00e93          	li	t4,-51
    47b0:	25d19063          	bne	gp,t4,49f0 <fail>
    47b4:	00120213          	addi	tp,tp,1 # 1 <__boot_address-0x17f>
    47b8:	00200293          	li	t0,2
    47bc:	fc521ce3          	bne	tp,t0,4794 <test_13+0x8>

000047c0 <test_14>:
    47c0:	00e00e13          	li	t3,14
    47c4:	00000213          	li	tp,0
    47c8:	fcc00093          	li	ra,-52
    47cc:	00007117          	auipc	sp,0x7
    47d0:	b5410113          	addi	sp,sp,-1196 # b320 <tdat>
    47d4:	00000013          	nop
    47d8:	00000013          	nop
    47dc:	00110123          	sb	ra,2(sp)
    47e0:	00210183          	lb	gp,2(sp)
    47e4:	fcc00e93          	li	t4,-52
    47e8:	21d19463          	bne	gp,t4,49f0 <fail>
    47ec:	00120213          	addi	tp,tp,1 # 1 <__boot_address-0x17f>
    47f0:	00200293          	li	t0,2
    47f4:	fc521ae3          	bne	tp,t0,47c8 <test_14+0x8>

000047f8 <test_15>:
    47f8:	00f00e13          	li	t3,15
    47fc:	00000213          	li	tp,0
    4800:	fbc00093          	li	ra,-68
    4804:	00000013          	nop
    4808:	00007117          	auipc	sp,0x7
    480c:	b1810113          	addi	sp,sp,-1256 # b320 <tdat>
    4810:	001101a3          	sb	ra,3(sp)
    4814:	00310183          	lb	gp,3(sp)
    4818:	fbc00e93          	li	t4,-68
    481c:	1dd19a63          	bne	gp,t4,49f0 <fail>
    4820:	00120213          	addi	tp,tp,1 # 1 <__boot_address-0x17f>
    4824:	00200293          	li	t0,2
    4828:	fc521ce3          	bne	tp,t0,4800 <test_15+0x8>

0000482c <test_16>:
    482c:	01000e13          	li	t3,16
    4830:	00000213          	li	tp,0
    4834:	fbb00093          	li	ra,-69
    4838:	00000013          	nop
    483c:	00007117          	auipc	sp,0x7
    4840:	ae410113          	addi	sp,sp,-1308 # b320 <tdat>
    4844:	00000013          	nop
    4848:	00110223          	sb	ra,4(sp)
    484c:	00410183          	lb	gp,4(sp)
    4850:	fbb00e93          	li	t4,-69
    4854:	19d19e63          	bne	gp,t4,49f0 <fail>
    4858:	00120213          	addi	tp,tp,1 # 1 <__boot_address-0x17f>
    485c:	00200293          	li	t0,2
    4860:	fc521ae3          	bne	tp,t0,4834 <test_16+0x8>

00004864 <test_17>:
    4864:	01100e13          	li	t3,17
    4868:	00000213          	li	tp,0
    486c:	fab00093          	li	ra,-85
    4870:	00000013          	nop
    4874:	00000013          	nop
    4878:	00007117          	auipc	sp,0x7
    487c:	aa810113          	addi	sp,sp,-1368 # b320 <tdat>
    4880:	001102a3          	sb	ra,5(sp)
    4884:	00510183          	lb	gp,5(sp)
    4888:	fab00e93          	li	t4,-85
    488c:	17d19263          	bne	gp,t4,49f0 <fail>
    4890:	00120213          	addi	tp,tp,1 # 1 <__boot_address-0x17f>
    4894:	00200293          	li	t0,2
    4898:	fc521ae3          	bne	tp,t0,486c <test_17+0x8>

0000489c <test_18>:
    489c:	01200e13          	li	t3,18
    48a0:	00000213          	li	tp,0
    48a4:	00007117          	auipc	sp,0x7
    48a8:	a7c10113          	addi	sp,sp,-1412 # b320 <tdat>
    48ac:	03300093          	li	ra,51
    48b0:	00110023          	sb	ra,0(sp)
    48b4:	00010183          	lb	gp,0(sp)
    48b8:	03300e93          	li	t4,51
    48bc:	13d19a63          	bne	gp,t4,49f0 <fail>
    48c0:	00120213          	addi	tp,tp,1 # 1 <__boot_address-0x17f>
    48c4:	00200293          	li	t0,2
    48c8:	fc521ee3          	bne	tp,t0,48a4 <test_18+0x8>

000048cc <test_19>:
    48cc:	01300e13          	li	t3,19
    48d0:	00000213          	li	tp,0
    48d4:	00007117          	auipc	sp,0x7
    48d8:	a4c10113          	addi	sp,sp,-1460 # b320 <tdat>
    48dc:	02300093          	li	ra,35
    48e0:	00000013          	nop
    48e4:	001100a3          	sb	ra,1(sp)
    48e8:	00110183          	lb	gp,1(sp)
    48ec:	02300e93          	li	t4,35
    48f0:	11d19063          	bne	gp,t4,49f0 <fail>
    48f4:	00120213          	addi	tp,tp,1 # 1 <__boot_address-0x17f>
    48f8:	00200293          	li	t0,2
    48fc:	fc521ce3          	bne	tp,t0,48d4 <test_19+0x8>

00004900 <test_20>:
    4900:	01400e13          	li	t3,20
    4904:	00000213          	li	tp,0
    4908:	00007117          	auipc	sp,0x7
    490c:	a1810113          	addi	sp,sp,-1512 # b320 <tdat>
    4910:	02200093          	li	ra,34
    4914:	00000013          	nop
    4918:	00000013          	nop
    491c:	00110123          	sb	ra,2(sp)
    4920:	00210183          	lb	gp,2(sp)
    4924:	02200e93          	li	t4,34
    4928:	0dd19463          	bne	gp,t4,49f0 <fail>
    492c:	00120213          	addi	tp,tp,1 # 1 <__boot_address-0x17f>
    4930:	00200293          	li	t0,2
    4934:	fc521ae3          	bne	tp,t0,4908 <test_20+0x8>

00004938 <test_21>:
    4938:	01500e13          	li	t3,21
    493c:	00000213          	li	tp,0
    4940:	00007117          	auipc	sp,0x7
    4944:	9e010113          	addi	sp,sp,-1568 # b320 <tdat>
    4948:	00000013          	nop
    494c:	01200093          	li	ra,18
    4950:	001101a3          	sb	ra,3(sp)
    4954:	00310183          	lb	gp,3(sp)
    4958:	01200e93          	li	t4,18
    495c:	09d19a63          	bne	gp,t4,49f0 <fail>
    4960:	00120213          	addi	tp,tp,1 # 1 <__boot_address-0x17f>
    4964:	00200293          	li	t0,2
    4968:	fc521ce3          	bne	tp,t0,4940 <test_21+0x8>

0000496c <test_22>:
    496c:	01600e13          	li	t3,22
    4970:	00000213          	li	tp,0
    4974:	00007117          	auipc	sp,0x7
    4978:	9ac10113          	addi	sp,sp,-1620 # b320 <tdat>
    497c:	00000013          	nop
    4980:	01100093          	li	ra,17
    4984:	00000013          	nop
    4988:	00110223          	sb	ra,4(sp)
    498c:	00410183          	lb	gp,4(sp)
    4990:	01100e93          	li	t4,17
    4994:	05d19e63          	bne	gp,t4,49f0 <fail>
    4998:	00120213          	addi	tp,tp,1 # 1 <__boot_address-0x17f>
    499c:	00200293          	li	t0,2
    49a0:	fc521ae3          	bne	tp,t0,4974 <test_22+0x8>

000049a4 <test_23>:
    49a4:	01700e13          	li	t3,23
    49a8:	00000213          	li	tp,0
    49ac:	00007117          	auipc	sp,0x7
    49b0:	97410113          	addi	sp,sp,-1676 # b320 <tdat>
    49b4:	00000013          	nop
    49b8:	00000013          	nop
    49bc:	00100093          	li	ra,1
    49c0:	001102a3          	sb	ra,5(sp)
    49c4:	00510183          	lb	gp,5(sp)
    49c8:	00100e93          	li	t4,1
    49cc:	03d19263          	bne	gp,t4,49f0 <fail>
    49d0:	00120213          	addi	tp,tp,1 # 1 <__boot_address-0x17f>
    49d4:	00200293          	li	t0,2
    49d8:	fc521ae3          	bne	tp,t0,49ac <test_23+0x8>
    49dc:	0ef00513          	li	a0,239
    49e0:	00007597          	auipc	a1,0x7
    49e4:	94058593          	addi	a1,a1,-1728 # b320 <tdat>
    49e8:	00a581a3          	sb	a0,3(a1)
    49ec:	03c01a63          	bne	zero,t3,4a20 <pass>

000049f0 <fail>:
    49f0:	10000537          	lui	a0,0x10000
    49f4:	04500593          	li	a1,69
    49f8:	05200613          	li	a2,82
    49fc:	04f00693          	li	a3,79
    4a00:	00a00713          	li	a4,10
    4a04:	00b52023          	sw	a1,0(a0) # 10000000 <end+0xfff49c0>
    4a08:	00c52023          	sw	a2,0(a0)
    4a0c:	00c52023          	sw	a2,0(a0)
    4a10:	00d52023          	sw	a3,0(a0)
    4a14:	00c52023          	sw	a2,0(a0)
    4a18:	00e52023          	sw	a4,0(a0)
    4a1c:	00100073          	ebreak

00004a20 <pass>:
    4a20:	10000537          	lui	a0,0x10000
    4a24:	04f00593          	li	a1,79
    4a28:	04b00613          	li	a2,75
    4a2c:	00a00693          	li	a3,10
    4a30:	00b52023          	sw	a1,0(a0) # 10000000 <end+0xfff49c0>
    4a34:	00c52023          	sw	a2,0(a0)
    4a38:	00d52023          	sw	a3,0(a0)
    4a3c:	000f0113          	mv	sp,t5
    4a40:	ffc12183          	lw	gp,-4(sp)
    4a44:	ff812083          	lw	ra,-8(sp)
    4a48:	8a9fb06f          	j	2f0 <sb_ret>

00004a4c <sh>:
    4a4c:	00010f13          	mv	t5,sp
    4a50:	fe312e23          	sw	gp,-4(sp)
    4a54:	fe112c23          	sw	ra,-8(sp)
    4a58:	0000b537          	lui	a0,0xb
    4a5c:	34450513          	addi	a0,a0,836 # b344 <sh_data>
    4a60:	10000637          	lui	a2,0x10000

00004a64 <.prname_next>:
    4a64:	00050583          	lb	a1,0(a0)
    4a68:	00058863          	beqz	a1,4a78 <.prname_done>
    4a6c:	00b62023          	sw	a1,0(a2) # 10000000 <end+0xfff49c0>
    4a70:	00150513          	addi	a0,a0,1
    4a74:	ff1ff06f          	j	4a64 <.prname_next>

00004a78 <.prname_done>:
    4a78:	02e00593          	li	a1,46
    4a7c:	00b62023          	sw	a1,0(a2)
    4a80:	00b62023          	sw	a1,0(a2)

00004a84 <test_2>:
    4a84:	00007097          	auipc	ra,0x7
    4a88:	8c408093          	addi	ra,ra,-1852 # b348 <tdat>
    4a8c:	0aa00113          	li	sp,170
    4a90:	00209023          	sh	sp,0(ra)
    4a94:	00009183          	lh	gp,0(ra)
    4a98:	0aa00e93          	li	t4,170
    4a9c:	00200e13          	li	t3,2
    4aa0:	45d19e63          	bne	gp,t4,4efc <fail>

00004aa4 <test_3>:
    4aa4:	00007097          	auipc	ra,0x7
    4aa8:	8a408093          	addi	ra,ra,-1884 # b348 <tdat>
    4aac:	ffffb137          	lui	sp,0xffffb
    4ab0:	a0010113          	addi	sp,sp,-1536 # ffffaa00 <end+0xfffef3c0>
    4ab4:	00209123          	sh	sp,2(ra)
    4ab8:	00209183          	lh	gp,2(ra)
    4abc:	ffffbeb7          	lui	t4,0xffffb
    4ac0:	a00e8e93          	addi	t4,t4,-1536 # ffffaa00 <end+0xfffef3c0>
    4ac4:	00300e13          	li	t3,3
    4ac8:	43d19a63          	bne	gp,t4,4efc <fail>

00004acc <test_4>:
    4acc:	00007097          	auipc	ra,0x7
    4ad0:	87c08093          	addi	ra,ra,-1924 # b348 <tdat>
    4ad4:	beef1137          	lui	sp,0xbeef1
    4ad8:	aa010113          	addi	sp,sp,-1376 # beef0aa0 <end+0xbeee5460>
    4adc:	00209223          	sh	sp,4(ra)
    4ae0:	0040a183          	lw	gp,4(ra)
    4ae4:	beef1eb7          	lui	t4,0xbeef1
    4ae8:	aa0e8e93          	addi	t4,t4,-1376 # beef0aa0 <end+0xbeee5460>
    4aec:	00400e13          	li	t3,4
    4af0:	41d19663          	bne	gp,t4,4efc <fail>

00004af4 <test_5>:
    4af4:	00007097          	auipc	ra,0x7
    4af8:	85408093          	addi	ra,ra,-1964 # b348 <tdat>
    4afc:	ffffa137          	lui	sp,0xffffa
    4b00:	00a10113          	addi	sp,sp,10 # ffffa00a <end+0xfffee9ca>
    4b04:	00209323          	sh	sp,6(ra)
    4b08:	00609183          	lh	gp,6(ra)
    4b0c:	ffffaeb7          	lui	t4,0xffffa
    4b10:	00ae8e93          	addi	t4,t4,10 # ffffa00a <end+0xfffee9ca>
    4b14:	00500e13          	li	t3,5
    4b18:	3fd19263          	bne	gp,t4,4efc <fail>

00004b1c <test_6>:
    4b1c:	00007097          	auipc	ra,0x7
    4b20:	83a08093          	addi	ra,ra,-1990 # b356 <tdat8>
    4b24:	0aa00113          	li	sp,170
    4b28:	fe209d23          	sh	sp,-6(ra)
    4b2c:	ffa09183          	lh	gp,-6(ra)
    4b30:	0aa00e93          	li	t4,170
    4b34:	00600e13          	li	t3,6
    4b38:	3dd19263          	bne	gp,t4,4efc <fail>

00004b3c <test_7>:
    4b3c:	00007097          	auipc	ra,0x7
    4b40:	81a08093          	addi	ra,ra,-2022 # b356 <tdat8>
    4b44:	ffffb137          	lui	sp,0xffffb
    4b48:	a0010113          	addi	sp,sp,-1536 # ffffaa00 <end+0xfffef3c0>
    4b4c:	fe209e23          	sh	sp,-4(ra)
    4b50:	ffc09183          	lh	gp,-4(ra)
    4b54:	ffffbeb7          	lui	t4,0xffffb
    4b58:	a00e8e93          	addi	t4,t4,-1536 # ffffaa00 <end+0xfffef3c0>
    4b5c:	00700e13          	li	t3,7
    4b60:	39d19e63          	bne	gp,t4,4efc <fail>

00004b64 <test_8>:
    4b64:	00006097          	auipc	ra,0x6
    4b68:	7f208093          	addi	ra,ra,2034 # b356 <tdat8>
    4b6c:	00001137          	lui	sp,0x1
    4b70:	aa010113          	addi	sp,sp,-1376 # aa0 <test_24+0x20>
    4b74:	fe209f23          	sh	sp,-2(ra)
    4b78:	ffe09183          	lh	gp,-2(ra)
    4b7c:	00001eb7          	lui	t4,0x1
    4b80:	aa0e8e93          	addi	t4,t4,-1376 # aa0 <test_24+0x20>
    4b84:	00800e13          	li	t3,8
    4b88:	37d19a63          	bne	gp,t4,4efc <fail>

00004b8c <test_9>:
    4b8c:	00006097          	auipc	ra,0x6
    4b90:	7ca08093          	addi	ra,ra,1994 # b356 <tdat8>
    4b94:	ffffa137          	lui	sp,0xffffa
    4b98:	00a10113          	addi	sp,sp,10 # ffffa00a <end+0xfffee9ca>
    4b9c:	00209023          	sh	sp,0(ra)
    4ba0:	00009183          	lh	gp,0(ra)
    4ba4:	ffffaeb7          	lui	t4,0xffffa
    4ba8:	00ae8e93          	addi	t4,t4,10 # ffffa00a <end+0xfffee9ca>
    4bac:	00900e13          	li	t3,9
    4bb0:	35d19663          	bne	gp,t4,4efc <fail>

00004bb4 <test_10>:
    4bb4:	00006097          	auipc	ra,0x6
    4bb8:	7a408093          	addi	ra,ra,1956 # b358 <tdat9>
    4bbc:	12345137          	lui	sp,0x12345
    4bc0:	67810113          	addi	sp,sp,1656 # 12345678 <end+0x1233a038>
    4bc4:	fe008213          	addi	tp,ra,-32
    4bc8:	02221023          	sh	sp,32(tp) # 20 <__boot_address-0x160>
    4bcc:	00009183          	lh	gp,0(ra)
    4bd0:	00005eb7          	lui	t4,0x5
    4bd4:	678e8e93          	addi	t4,t4,1656 # 5678 <test_30+0x24>
    4bd8:	00a00e13          	li	t3,10
    4bdc:	33d19063          	bne	gp,t4,4efc <fail>

00004be0 <test_11>:
    4be0:	00006097          	auipc	ra,0x6
    4be4:	77808093          	addi	ra,ra,1912 # b358 <tdat9>
    4be8:	00003137          	lui	sp,0x3
    4bec:	09810113          	addi	sp,sp,152 # 3098 <fail>
    4bf0:	ffb08093          	addi	ra,ra,-5
    4bf4:	002093a3          	sh	sp,7(ra)
    4bf8:	00006217          	auipc	tp,0x6
    4bfc:	76220213          	addi	tp,tp,1890 # b35a <tdat10>
    4c00:	00021183          	lh	gp,0(tp) # 0 <__boot_address-0x180>
    4c04:	00003eb7          	lui	t4,0x3
    4c08:	098e8e93          	addi	t4,t4,152 # 3098 <fail>
    4c0c:	00b00e13          	li	t3,11
    4c10:	2fd19663          	bne	gp,t4,4efc <fail>

00004c14 <test_12>:
    4c14:	00c00e13          	li	t3,12
    4c18:	00000213          	li	tp,0
    4c1c:	ffffd0b7          	lui	ra,0xffffd
    4c20:	cdd08093          	addi	ra,ra,-803 # ffffccdd <end+0xffff169d>
    4c24:	00006117          	auipc	sp,0x6
    4c28:	72410113          	addi	sp,sp,1828 # b348 <tdat>
    4c2c:	00111023          	sh	ra,0(sp)
    4c30:	00011183          	lh	gp,0(sp)
    4c34:	ffffdeb7          	lui	t4,0xffffd
    4c38:	cdde8e93          	addi	t4,t4,-803 # ffffccdd <end+0xffff169d>
    4c3c:	2dd19063          	bne	gp,t4,4efc <fail>
    4c40:	00120213          	addi	tp,tp,1 # 1 <__boot_address-0x17f>
    4c44:	00200293          	li	t0,2
    4c48:	fc521ae3          	bne	tp,t0,4c1c <test_12+0x8>

00004c4c <test_13>:
    4c4c:	00d00e13          	li	t3,13
    4c50:	00000213          	li	tp,0
    4c54:	ffffc0b7          	lui	ra,0xffffc
    4c58:	ccd08093          	addi	ra,ra,-819 # ffffbccd <end+0xffff068d>
    4c5c:	00006117          	auipc	sp,0x6
    4c60:	6ec10113          	addi	sp,sp,1772 # b348 <tdat>
    4c64:	00000013          	nop
    4c68:	00111123          	sh	ra,2(sp)
    4c6c:	00211183          	lh	gp,2(sp)
    4c70:	ffffceb7          	lui	t4,0xffffc
    4c74:	ccde8e93          	addi	t4,t4,-819 # ffffbccd <end+0xffff068d>
    4c78:	29d19263          	bne	gp,t4,4efc <fail>
    4c7c:	00120213          	addi	tp,tp,1 # 1 <__boot_address-0x17f>
    4c80:	00200293          	li	t0,2
    4c84:	fc5218e3          	bne	tp,t0,4c54 <test_13+0x8>

00004c88 <test_14>:
    4c88:	00e00e13          	li	t3,14
    4c8c:	00000213          	li	tp,0
    4c90:	ffffc0b7          	lui	ra,0xffffc
    4c94:	bcc08093          	addi	ra,ra,-1076 # ffffbbcc <end+0xffff058c>
    4c98:	00006117          	auipc	sp,0x6
    4c9c:	6b010113          	addi	sp,sp,1712 # b348 <tdat>
    4ca0:	00000013          	nop
    4ca4:	00000013          	nop
    4ca8:	00111223          	sh	ra,4(sp)
    4cac:	00411183          	lh	gp,4(sp)
    4cb0:	ffffceb7          	lui	t4,0xffffc
    4cb4:	bcce8e93          	addi	t4,t4,-1076 # ffffbbcc <end+0xffff058c>
    4cb8:	25d19263          	bne	gp,t4,4efc <fail>
    4cbc:	00120213          	addi	tp,tp,1 # 1 <__boot_address-0x17f>
    4cc0:	00200293          	li	t0,2
    4cc4:	fc5216e3          	bne	tp,t0,4c90 <test_14+0x8>

00004cc8 <test_15>:
    4cc8:	00f00e13          	li	t3,15
    4ccc:	00000213          	li	tp,0
    4cd0:	ffffb0b7          	lui	ra,0xffffb
    4cd4:	bbc08093          	addi	ra,ra,-1092 # ffffabbc <end+0xfffef57c>
    4cd8:	00000013          	nop
    4cdc:	00006117          	auipc	sp,0x6
    4ce0:	66c10113          	addi	sp,sp,1644 # b348 <tdat>
    4ce4:	00111323          	sh	ra,6(sp)
    4ce8:	00611183          	lh	gp,6(sp)
    4cec:	ffffbeb7          	lui	t4,0xffffb
    4cf0:	bbce8e93          	addi	t4,t4,-1092 # ffffabbc <end+0xfffef57c>
    4cf4:	21d19463          	bne	gp,t4,4efc <fail>
    4cf8:	00120213          	addi	tp,tp,1 # 1 <__boot_address-0x17f>
    4cfc:	00200293          	li	t0,2
    4d00:	fc5218e3          	bne	tp,t0,4cd0 <test_15+0x8>

00004d04 <test_16>:
    4d04:	01000e13          	li	t3,16
    4d08:	00000213          	li	tp,0
    4d0c:	ffffb0b7          	lui	ra,0xffffb
    4d10:	abb08093          	addi	ra,ra,-1349 # ffffaabb <end+0xfffef47b>
    4d14:	00000013          	nop
    4d18:	00006117          	auipc	sp,0x6
    4d1c:	63010113          	addi	sp,sp,1584 # b348 <tdat>
    4d20:	00000013          	nop
    4d24:	00111423          	sh	ra,8(sp)
    4d28:	00811183          	lh	gp,8(sp)
    4d2c:	ffffbeb7          	lui	t4,0xffffb
    4d30:	abbe8e93          	addi	t4,t4,-1349 # ffffaabb <end+0xfffef47b>
    4d34:	1dd19463          	bne	gp,t4,4efc <fail>
    4d38:	00120213          	addi	tp,tp,1 # 1 <__boot_address-0x17f>
    4d3c:	00200293          	li	t0,2
    4d40:	fc5216e3          	bne	tp,t0,4d0c <test_16+0x8>

00004d44 <test_17>:
    4d44:	01100e13          	li	t3,17
    4d48:	00000213          	li	tp,0
    4d4c:	ffffe0b7          	lui	ra,0xffffe
    4d50:	aab08093          	addi	ra,ra,-1365 # ffffdaab <end+0xffff246b>
    4d54:	00000013          	nop
    4d58:	00000013          	nop
    4d5c:	00006117          	auipc	sp,0x6
    4d60:	5ec10113          	addi	sp,sp,1516 # b348 <tdat>
    4d64:	00111523          	sh	ra,10(sp)
    4d68:	00a11183          	lh	gp,10(sp)
    4d6c:	ffffeeb7          	lui	t4,0xffffe
    4d70:	aabe8e93          	addi	t4,t4,-1365 # ffffdaab <end+0xffff246b>
    4d74:	19d19463          	bne	gp,t4,4efc <fail>
    4d78:	00120213          	addi	tp,tp,1 # 1 <__boot_address-0x17f>
    4d7c:	00200293          	li	t0,2
    4d80:	fc5216e3          	bne	tp,t0,4d4c <test_17+0x8>

00004d84 <test_18>:
    4d84:	01200e13          	li	t3,18
    4d88:	00000213          	li	tp,0
    4d8c:	00006117          	auipc	sp,0x6
    4d90:	5bc10113          	addi	sp,sp,1468 # b348 <tdat>
    4d94:	000020b7          	lui	ra,0x2
    4d98:	23308093          	addi	ra,ra,563 # 2233 <test_13+0xb>
    4d9c:	00111023          	sh	ra,0(sp)
    4da0:	00011183          	lh	gp,0(sp)
    4da4:	00002eb7          	lui	t4,0x2
    4da8:	233e8e93          	addi	t4,t4,563 # 2233 <test_13+0xb>
    4dac:	15d19863          	bne	gp,t4,4efc <fail>
    4db0:	00120213          	addi	tp,tp,1 # 1 <__boot_address-0x17f>
    4db4:	00200293          	li	t0,2
    4db8:	fc521ae3          	bne	tp,t0,4d8c <test_18+0x8>

00004dbc <test_19>:
    4dbc:	01300e13          	li	t3,19
    4dc0:	00000213          	li	tp,0
    4dc4:	00006117          	auipc	sp,0x6
    4dc8:	58410113          	addi	sp,sp,1412 # b348 <tdat>
    4dcc:	000010b7          	lui	ra,0x1
    4dd0:	22308093          	addi	ra,ra,547 # 1223 <test_15+0x23>
    4dd4:	00000013          	nop
    4dd8:	00111123          	sh	ra,2(sp)
    4ddc:	00211183          	lh	gp,2(sp)
    4de0:	00001eb7          	lui	t4,0x1
    4de4:	223e8e93          	addi	t4,t4,547 # 1223 <test_15+0x23>
    4de8:	11d19a63          	bne	gp,t4,4efc <fail>
    4dec:	00120213          	addi	tp,tp,1 # 1 <__boot_address-0x17f>
    4df0:	00200293          	li	t0,2
    4df4:	fc5218e3          	bne	tp,t0,4dc4 <test_19+0x8>

00004df8 <test_20>:
    4df8:	01400e13          	li	t3,20
    4dfc:	00000213          	li	tp,0
    4e00:	00006117          	auipc	sp,0x6
    4e04:	54810113          	addi	sp,sp,1352 # b348 <tdat>
    4e08:	000010b7          	lui	ra,0x1
    4e0c:	12208093          	addi	ra,ra,290 # 1122 <test_11+0xa>
    4e10:	00000013          	nop
    4e14:	00000013          	nop
    4e18:	00111223          	sh	ra,4(sp)
    4e1c:	00411183          	lh	gp,4(sp)
    4e20:	00001eb7          	lui	t4,0x1
    4e24:	122e8e93          	addi	t4,t4,290 # 1122 <test_11+0xa>
    4e28:	0dd19a63          	bne	gp,t4,4efc <fail>
    4e2c:	00120213          	addi	tp,tp,1 # 1 <__boot_address-0x17f>
    4e30:	00200293          	li	t0,2
    4e34:	fc5216e3          	bne	tp,t0,4e00 <test_20+0x8>

00004e38 <test_21>:
    4e38:	01500e13          	li	t3,21
    4e3c:	00000213          	li	tp,0
    4e40:	00006117          	auipc	sp,0x6
    4e44:	50810113          	addi	sp,sp,1288 # b348 <tdat>
    4e48:	00000013          	nop
    4e4c:	11200093          	li	ra,274
    4e50:	00111323          	sh	ra,6(sp)
    4e54:	00611183          	lh	gp,6(sp)
    4e58:	11200e93          	li	t4,274
    4e5c:	0bd19063          	bne	gp,t4,4efc <fail>
    4e60:	00120213          	addi	tp,tp,1 # 1 <__boot_address-0x17f>
    4e64:	00200293          	li	t0,2
    4e68:	fc521ce3          	bne	tp,t0,4e40 <test_21+0x8>

00004e6c <test_22>:
    4e6c:	01600e13          	li	t3,22
    4e70:	00000213          	li	tp,0
    4e74:	00006117          	auipc	sp,0x6
    4e78:	4d410113          	addi	sp,sp,1236 # b348 <tdat>
    4e7c:	00000013          	nop
    4e80:	01100093          	li	ra,17
    4e84:	00000013          	nop
    4e88:	00111423          	sh	ra,8(sp)
    4e8c:	00811183          	lh	gp,8(sp)
    4e90:	01100e93          	li	t4,17
    4e94:	07d19463          	bne	gp,t4,4efc <fail>
    4e98:	00120213          	addi	tp,tp,1 # 1 <__boot_address-0x17f>
    4e9c:	00200293          	li	t0,2
    4ea0:	fc521ae3          	bne	tp,t0,4e74 <test_22+0x8>

00004ea4 <test_23>:
    4ea4:	01700e13          	li	t3,23
    4ea8:	00000213          	li	tp,0
    4eac:	00006117          	auipc	sp,0x6
    4eb0:	49c10113          	addi	sp,sp,1180 # b348 <tdat>
    4eb4:	00000013          	nop
    4eb8:	00000013          	nop
    4ebc:	000030b7          	lui	ra,0x3
    4ec0:	00108093          	addi	ra,ra,1 # 3001 <test_16+0x5>
    4ec4:	00111523          	sh	ra,10(sp)
    4ec8:	00a11183          	lh	gp,10(sp)
    4ecc:	00003eb7          	lui	t4,0x3
    4ed0:	001e8e93          	addi	t4,t4,1 # 3001 <test_16+0x5>
    4ed4:	03d19463          	bne	gp,t4,4efc <fail>
    4ed8:	00120213          	addi	tp,tp,1 # 1 <__boot_address-0x17f>
    4edc:	00200293          	li	t0,2
    4ee0:	fc5216e3          	bne	tp,t0,4eac <test_23+0x8>
    4ee4:	0000c537          	lui	a0,0xc
    4ee8:	eef50513          	addi	a0,a0,-273 # beef <end+0x8af>
    4eec:	00006597          	auipc	a1,0x6
    4ef0:	45c58593          	addi	a1,a1,1116 # b348 <tdat>
    4ef4:	00a59323          	sh	a0,6(a1)
    4ef8:	03c01a63          	bne	zero,t3,4f2c <pass>

00004efc <fail>:
    4efc:	10000537          	lui	a0,0x10000
    4f00:	04500593          	li	a1,69
    4f04:	05200613          	li	a2,82
    4f08:	04f00693          	li	a3,79
    4f0c:	00a00713          	li	a4,10
    4f10:	00b52023          	sw	a1,0(a0) # 10000000 <end+0xfff49c0>
    4f14:	00c52023          	sw	a2,0(a0)
    4f18:	00c52023          	sw	a2,0(a0)
    4f1c:	00d52023          	sw	a3,0(a0)
    4f20:	00c52023          	sw	a2,0(a0)
    4f24:	00e52023          	sw	a4,0(a0)
    4f28:	00100073          	ebreak

00004f2c <pass>:
    4f2c:	10000537          	lui	a0,0x10000
    4f30:	04f00593          	li	a1,79
    4f34:	04b00613          	li	a2,75
    4f38:	00a00693          	li	a3,10
    4f3c:	00b52023          	sw	a1,0(a0) # 10000000 <end+0xfff49c0>
    4f40:	00c52023          	sw	a2,0(a0)
    4f44:	00d52023          	sw	a3,0(a0)
    4f48:	000f0113          	mv	sp,t5
    4f4c:	ffc12183          	lw	gp,-4(sp)
    4f50:	ff812083          	lw	ra,-8(sp)
    4f54:	ba4fb06f          	j	2f8 <sh_ret>

00004f58 <simple>:
    4f58:	00010f13          	mv	t5,sp
    4f5c:	fe312e23          	sw	gp,-4(sp)
    4f60:	fe112c23          	sw	ra,-8(sp)
    4f64:	0000b537          	lui	a0,0xb
    4f68:	37850513          	addi	a0,a0,888 # b378 <simple_data>
    4f6c:	10000637          	lui	a2,0x10000

00004f70 <.prname_next>:
    4f70:	00050583          	lb	a1,0(a0)
    4f74:	00058863          	beqz	a1,4f84 <.prname_done>
    4f78:	00b62023          	sw	a1,0(a2) # 10000000 <end+0xfff49c0>
    4f7c:	00150513          	addi	a0,a0,1
    4f80:	ff1ff06f          	j	4f70 <.prname_next>

00004f84 <.prname_done>:
    4f84:	02e00593          	li	a1,46
    4f88:	00b62023          	sw	a1,0(a2)
    4f8c:	00b62023          	sw	a1,0(a2)
    4f90:	10000537          	lui	a0,0x10000
    4f94:	04f00593          	li	a1,79
    4f98:	04b00613          	li	a2,75
    4f9c:	00a00693          	li	a3,10
    4fa0:	00b52023          	sw	a1,0(a0) # 10000000 <end+0xfff49c0>
    4fa4:	00c52023          	sw	a2,0(a0)
    4fa8:	00d52023          	sw	a3,0(a0)
    4fac:	000f0113          	mv	sp,t5
    4fb0:	ffc12183          	lw	gp,-4(sp)
    4fb4:	ff812083          	lw	ra,-8(sp)
    4fb8:	bd8fb06f          	j	390 <simple_ret>

00004fbc <slli>:
    4fbc:	00010f13          	mv	t5,sp
    4fc0:	fe312e23          	sw	gp,-4(sp)
    4fc4:	fe112c23          	sw	ra,-8(sp)
    4fc8:	0000b537          	lui	a0,0xb
    4fcc:	39c50513          	addi	a0,a0,924 # b39c <slli_data>
    4fd0:	10000637          	lui	a2,0x10000

00004fd4 <.prname_next>:
    4fd4:	00050583          	lb	a1,0(a0)
    4fd8:	00058863          	beqz	a1,4fe8 <.prname_done>
    4fdc:	00b62023          	sw	a1,0(a2) # 10000000 <end+0xfff49c0>
    4fe0:	00150513          	addi	a0,a0,1
    4fe4:	ff1ff06f          	j	4fd4 <.prname_next>

00004fe8 <.prname_done>:
    4fe8:	02e00593          	li	a1,46
    4fec:	00b62023          	sw	a1,0(a2)
    4ff0:	00b62023          	sw	a1,0(a2)

00004ff4 <test_2>:
    4ff4:	00100093          	li	ra,1
    4ff8:	00009193          	slli	gp,ra,0x0
    4ffc:	00100e93          	li	t4,1
    5000:	00200e13          	li	t3,2
    5004:	27d19a63          	bne	gp,t4,5278 <fail>

00005008 <test_3>:
    5008:	00100093          	li	ra,1
    500c:	00109193          	slli	gp,ra,0x1
    5010:	00200e93          	li	t4,2
    5014:	00300e13          	li	t3,3
    5018:	27d19063          	bne	gp,t4,5278 <fail>

0000501c <test_4>:
    501c:	00100093          	li	ra,1
    5020:	00709193          	slli	gp,ra,0x7
    5024:	08000e93          	li	t4,128
    5028:	00400e13          	li	t3,4
    502c:	25d19663          	bne	gp,t4,5278 <fail>

00005030 <test_5>:
    5030:	00100093          	li	ra,1
    5034:	00e09193          	slli	gp,ra,0xe
    5038:	00004eb7          	lui	t4,0x4
    503c:	00500e13          	li	t3,5
    5040:	23d19c63          	bne	gp,t4,5278 <fail>

00005044 <test_6>:
    5044:	00100093          	li	ra,1
    5048:	01f09193          	slli	gp,ra,0x1f
    504c:	80000eb7          	lui	t4,0x80000
    5050:	00600e13          	li	t3,6
    5054:	23d19263          	bne	gp,t4,5278 <fail>

00005058 <test_7>:
    5058:	fff00093          	li	ra,-1
    505c:	00009193          	slli	gp,ra,0x0
    5060:	fff00e93          	li	t4,-1
    5064:	00700e13          	li	t3,7
    5068:	21d19863          	bne	gp,t4,5278 <fail>

0000506c <test_8>:
    506c:	fff00093          	li	ra,-1
    5070:	00109193          	slli	gp,ra,0x1
    5074:	ffe00e93          	li	t4,-2
    5078:	00800e13          	li	t3,8
    507c:	1fd19e63          	bne	gp,t4,5278 <fail>

00005080 <test_9>:
    5080:	fff00093          	li	ra,-1
    5084:	00709193          	slli	gp,ra,0x7
    5088:	f8000e93          	li	t4,-128
    508c:	00900e13          	li	t3,9
    5090:	1fd19463          	bne	gp,t4,5278 <fail>

00005094 <test_10>:
    5094:	fff00093          	li	ra,-1
    5098:	00e09193          	slli	gp,ra,0xe
    509c:	ffffceb7          	lui	t4,0xffffc
    50a0:	00a00e13          	li	t3,10
    50a4:	1dd19a63          	bne	gp,t4,5278 <fail>

000050a8 <test_11>:
    50a8:	fff00093          	li	ra,-1
    50ac:	01f09193          	slli	gp,ra,0x1f
    50b0:	80000eb7          	lui	t4,0x80000
    50b4:	00b00e13          	li	t3,11
    50b8:	1dd19063          	bne	gp,t4,5278 <fail>

000050bc <test_12>:
    50bc:	212120b7          	lui	ra,0x21212
    50c0:	12108093          	addi	ra,ra,289 # 21212121 <end+0x21206ae1>
    50c4:	00009193          	slli	gp,ra,0x0
    50c8:	21212eb7          	lui	t4,0x21212
    50cc:	121e8e93          	addi	t4,t4,289 # 21212121 <end+0x21206ae1>
    50d0:	00c00e13          	li	t3,12
    50d4:	1bd19263          	bne	gp,t4,5278 <fail>

000050d8 <test_13>:
    50d8:	212120b7          	lui	ra,0x21212
    50dc:	12108093          	addi	ra,ra,289 # 21212121 <end+0x21206ae1>
    50e0:	00109193          	slli	gp,ra,0x1
    50e4:	42424eb7          	lui	t4,0x42424
    50e8:	242e8e93          	addi	t4,t4,578 # 42424242 <end+0x42418c02>
    50ec:	00d00e13          	li	t3,13
    50f0:	19d19463          	bne	gp,t4,5278 <fail>

000050f4 <test_14>:
    50f4:	212120b7          	lui	ra,0x21212
    50f8:	12108093          	addi	ra,ra,289 # 21212121 <end+0x21206ae1>
    50fc:	00709193          	slli	gp,ra,0x7
    5100:	90909eb7          	lui	t4,0x90909
    5104:	080e8e93          	addi	t4,t4,128 # 90909080 <end+0x908fda40>
    5108:	00e00e13          	li	t3,14
    510c:	17d19663          	bne	gp,t4,5278 <fail>

00005110 <test_15>:
    5110:	212120b7          	lui	ra,0x21212
    5114:	12108093          	addi	ra,ra,289 # 21212121 <end+0x21206ae1>
    5118:	00e09193          	slli	gp,ra,0xe
    511c:	48484eb7          	lui	t4,0x48484
    5120:	00f00e13          	li	t3,15
    5124:	15d19a63          	bne	gp,t4,5278 <fail>

00005128 <test_16>:
    5128:	212120b7          	lui	ra,0x21212
    512c:	12108093          	addi	ra,ra,289 # 21212121 <end+0x21206ae1>
    5130:	01f09193          	slli	gp,ra,0x1f
    5134:	80000eb7          	lui	t4,0x80000
    5138:	01000e13          	li	t3,16
    513c:	13d19e63          	bne	gp,t4,5278 <fail>

00005140 <test_17>:
    5140:	00100093          	li	ra,1
    5144:	00709093          	slli	ra,ra,0x7
    5148:	08000e93          	li	t4,128
    514c:	01100e13          	li	t3,17
    5150:	13d09463          	bne	ra,t4,5278 <fail>

00005154 <test_18>:
    5154:	00000213          	li	tp,0
    5158:	00100093          	li	ra,1
    515c:	00709193          	slli	gp,ra,0x7
    5160:	00018313          	mv	t1,gp
    5164:	00120213          	addi	tp,tp,1 # 1 <__boot_address-0x17f>
    5168:	00200293          	li	t0,2
    516c:	fe5216e3          	bne	tp,t0,5158 <test_18+0x4>
    5170:	08000e93          	li	t4,128
    5174:	01200e13          	li	t3,18
    5178:	11d31063          	bne	t1,t4,5278 <fail>

0000517c <test_19>:
    517c:	00000213          	li	tp,0
    5180:	00100093          	li	ra,1
    5184:	00e09193          	slli	gp,ra,0xe
    5188:	00000013          	nop
    518c:	00018313          	mv	t1,gp
    5190:	00120213          	addi	tp,tp,1 # 1 <__boot_address-0x17f>
    5194:	00200293          	li	t0,2
    5198:	fe5214e3          	bne	tp,t0,5180 <test_19+0x4>
    519c:	00004eb7          	lui	t4,0x4
    51a0:	01300e13          	li	t3,19
    51a4:	0dd31a63          	bne	t1,t4,5278 <fail>

000051a8 <test_20>:
    51a8:	00000213          	li	tp,0
    51ac:	00100093          	li	ra,1
    51b0:	01f09193          	slli	gp,ra,0x1f
    51b4:	00000013          	nop
    51b8:	00000013          	nop
    51bc:	00018313          	mv	t1,gp
    51c0:	00120213          	addi	tp,tp,1 # 1 <__boot_address-0x17f>
    51c4:	00200293          	li	t0,2
    51c8:	fe5212e3          	bne	tp,t0,51ac <test_20+0x4>
    51cc:	80000eb7          	lui	t4,0x80000
    51d0:	01400e13          	li	t3,20
    51d4:	0bd31263          	bne	t1,t4,5278 <fail>

000051d8 <test_21>:
    51d8:	00000213          	li	tp,0
    51dc:	00100093          	li	ra,1
    51e0:	00709193          	slli	gp,ra,0x7
    51e4:	00120213          	addi	tp,tp,1 # 1 <__boot_address-0x17f>
    51e8:	00200293          	li	t0,2
    51ec:	fe5218e3          	bne	tp,t0,51dc <test_21+0x4>
    51f0:	08000e93          	li	t4,128
    51f4:	01500e13          	li	t3,21
    51f8:	09d19063          	bne	gp,t4,5278 <fail>

000051fc <test_22>:
    51fc:	00000213          	li	tp,0
    5200:	00100093          	li	ra,1
    5204:	00000013          	nop
    5208:	00e09193          	slli	gp,ra,0xe
    520c:	00120213          	addi	tp,tp,1 # 1 <__boot_address-0x17f>
    5210:	00200293          	li	t0,2
    5214:	fe5216e3          	bne	tp,t0,5200 <test_22+0x4>
    5218:	00004eb7          	lui	t4,0x4
    521c:	01600e13          	li	t3,22
    5220:	05d19c63          	bne	gp,t4,5278 <fail>

00005224 <test_23>:
    5224:	00000213          	li	tp,0
    5228:	00100093          	li	ra,1
    522c:	00000013          	nop
    5230:	00000013          	nop
    5234:	01f09193          	slli	gp,ra,0x1f
    5238:	00120213          	addi	tp,tp,1 # 1 <__boot_address-0x17f>
    523c:	00200293          	li	t0,2
    5240:	fe5214e3          	bne	tp,t0,5228 <test_23+0x4>
    5244:	80000eb7          	lui	t4,0x80000
    5248:	01700e13          	li	t3,23
    524c:	03d19663          	bne	gp,t4,5278 <fail>

00005250 <test_24>:
    5250:	01f01093          	slli	ra,zero,0x1f
    5254:	00000e93          	li	t4,0
    5258:	01800e13          	li	t3,24
    525c:	01d09e63          	bne	ra,t4,5278 <fail>

00005260 <test_25>:
    5260:	02100093          	li	ra,33
    5264:	01409013          	slli	zero,ra,0x14
    5268:	00000e93          	li	t4,0
    526c:	01900e13          	li	t3,25
    5270:	01d01463          	bne	zero,t4,5278 <fail>
    5274:	03c01a63          	bne	zero,t3,52a8 <pass>

00005278 <fail>:
    5278:	10000537          	lui	a0,0x10000
    527c:	04500593          	li	a1,69
    5280:	05200613          	li	a2,82
    5284:	04f00693          	li	a3,79
    5288:	00a00713          	li	a4,10
    528c:	00b52023          	sw	a1,0(a0) # 10000000 <end+0xfff49c0>
    5290:	00c52023          	sw	a2,0(a0)
    5294:	00c52023          	sw	a2,0(a0)
    5298:	00d52023          	sw	a3,0(a0)
    529c:	00c52023          	sw	a2,0(a0)
    52a0:	00e52023          	sw	a4,0(a0)
    52a4:	00100073          	ebreak

000052a8 <pass>:
    52a8:	10000537          	lui	a0,0x10000
    52ac:	04f00593          	li	a1,79
    52b0:	04b00613          	li	a2,75
    52b4:	00a00693          	li	a3,10
    52b8:	00b52023          	sw	a1,0(a0) # 10000000 <end+0xfff49c0>
    52bc:	00c52023          	sw	a2,0(a0)
    52c0:	00d52023          	sw	a3,0(a0)
    52c4:	000f0113          	mv	sp,t5
    52c8:	ffc12183          	lw	gp,-4(sp)
    52cc:	ff812083          	lw	ra,-8(sp)
    52d0:	860fb06f          	j	330 <slli_ret>

000052d4 <sll>:
    52d4:	00010f13          	mv	t5,sp
    52d8:	fe312e23          	sw	gp,-4(sp)
    52dc:	fe112c23          	sw	ra,-8(sp)
    52e0:	0000b537          	lui	a0,0xb
    52e4:	3c050513          	addi	a0,a0,960 # b3c0 <sll_data>
    52e8:	10000637          	lui	a2,0x10000

000052ec <.prname_next>:
    52ec:	00050583          	lb	a1,0(a0)
    52f0:	00058863          	beqz	a1,5300 <.prname_done>
    52f4:	00b62023          	sw	a1,0(a2) # 10000000 <end+0xfff49c0>
    52f8:	00150513          	addi	a0,a0,1
    52fc:	ff1ff06f          	j	52ec <.prname_next>

00005300 <.prname_done>:
    5300:	02e00593          	li	a1,46
    5304:	00b62023          	sw	a1,0(a2)
    5308:	00b62023          	sw	a1,0(a2)

0000530c <test_2>:
    530c:	00100093          	li	ra,1
    5310:	00000113          	li	sp,0
    5314:	002091b3          	sll	gp,ra,sp
    5318:	00100e93          	li	t4,1
    531c:	00200e13          	li	t3,2
    5320:	55d19c63          	bne	gp,t4,5878 <fail>

00005324 <test_3>:
    5324:	00100093          	li	ra,1
    5328:	00100113          	li	sp,1
    532c:	002091b3          	sll	gp,ra,sp
    5330:	00200e93          	li	t4,2
    5334:	00300e13          	li	t3,3
    5338:	55d19063          	bne	gp,t4,5878 <fail>

0000533c <test_4>:
    533c:	00100093          	li	ra,1
    5340:	00700113          	li	sp,7
    5344:	002091b3          	sll	gp,ra,sp
    5348:	08000e93          	li	t4,128
    534c:	00400e13          	li	t3,4
    5350:	53d19463          	bne	gp,t4,5878 <fail>

00005354 <test_5>:
    5354:	00100093          	li	ra,1
    5358:	00e00113          	li	sp,14
    535c:	002091b3          	sll	gp,ra,sp
    5360:	00004eb7          	lui	t4,0x4
    5364:	00500e13          	li	t3,5
    5368:	51d19863          	bne	gp,t4,5878 <fail>

0000536c <test_6>:
    536c:	00100093          	li	ra,1
    5370:	01f00113          	li	sp,31
    5374:	002091b3          	sll	gp,ra,sp
    5378:	80000eb7          	lui	t4,0x80000
    537c:	00600e13          	li	t3,6
    5380:	4fd19c63          	bne	gp,t4,5878 <fail>

00005384 <test_7>:
    5384:	fff00093          	li	ra,-1
    5388:	00000113          	li	sp,0
    538c:	002091b3          	sll	gp,ra,sp
    5390:	fff00e93          	li	t4,-1
    5394:	00700e13          	li	t3,7
    5398:	4fd19063          	bne	gp,t4,5878 <fail>

0000539c <test_8>:
    539c:	fff00093          	li	ra,-1
    53a0:	00100113          	li	sp,1
    53a4:	002091b3          	sll	gp,ra,sp
    53a8:	ffe00e93          	li	t4,-2
    53ac:	00800e13          	li	t3,8
    53b0:	4dd19463          	bne	gp,t4,5878 <fail>

000053b4 <test_9>:
    53b4:	fff00093          	li	ra,-1
    53b8:	00700113          	li	sp,7
    53bc:	002091b3          	sll	gp,ra,sp
    53c0:	f8000e93          	li	t4,-128
    53c4:	00900e13          	li	t3,9
    53c8:	4bd19863          	bne	gp,t4,5878 <fail>

000053cc <test_10>:
    53cc:	fff00093          	li	ra,-1
    53d0:	00e00113          	li	sp,14
    53d4:	002091b3          	sll	gp,ra,sp
    53d8:	ffffceb7          	lui	t4,0xffffc
    53dc:	00a00e13          	li	t3,10
    53e0:	49d19c63          	bne	gp,t4,5878 <fail>

000053e4 <test_11>:
    53e4:	fff00093          	li	ra,-1
    53e8:	01f00113          	li	sp,31
    53ec:	002091b3          	sll	gp,ra,sp
    53f0:	80000eb7          	lui	t4,0x80000
    53f4:	00b00e13          	li	t3,11
    53f8:	49d19063          	bne	gp,t4,5878 <fail>

000053fc <test_12>:
    53fc:	212120b7          	lui	ra,0x21212
    5400:	12108093          	addi	ra,ra,289 # 21212121 <end+0x21206ae1>
    5404:	00000113          	li	sp,0
    5408:	002091b3          	sll	gp,ra,sp
    540c:	21212eb7          	lui	t4,0x21212
    5410:	121e8e93          	addi	t4,t4,289 # 21212121 <end+0x21206ae1>
    5414:	00c00e13          	li	t3,12
    5418:	47d19063          	bne	gp,t4,5878 <fail>

0000541c <test_13>:
    541c:	212120b7          	lui	ra,0x21212
    5420:	12108093          	addi	ra,ra,289 # 21212121 <end+0x21206ae1>
    5424:	00100113          	li	sp,1
    5428:	002091b3          	sll	gp,ra,sp
    542c:	42424eb7          	lui	t4,0x42424
    5430:	242e8e93          	addi	t4,t4,578 # 42424242 <end+0x42418c02>
    5434:	00d00e13          	li	t3,13
    5438:	45d19063          	bne	gp,t4,5878 <fail>

0000543c <test_14>:
    543c:	212120b7          	lui	ra,0x21212
    5440:	12108093          	addi	ra,ra,289 # 21212121 <end+0x21206ae1>
    5444:	00700113          	li	sp,7
    5448:	002091b3          	sll	gp,ra,sp
    544c:	90909eb7          	lui	t4,0x90909
    5450:	080e8e93          	addi	t4,t4,128 # 90909080 <end+0x908fda40>
    5454:	00e00e13          	li	t3,14
    5458:	43d19063          	bne	gp,t4,5878 <fail>

0000545c <test_15>:
    545c:	212120b7          	lui	ra,0x21212
    5460:	12108093          	addi	ra,ra,289 # 21212121 <end+0x21206ae1>
    5464:	00e00113          	li	sp,14
    5468:	002091b3          	sll	gp,ra,sp
    546c:	48484eb7          	lui	t4,0x48484
    5470:	00f00e13          	li	t3,15
    5474:	41d19263          	bne	gp,t4,5878 <fail>

00005478 <test_16>:
    5478:	212120b7          	lui	ra,0x21212
    547c:	12108093          	addi	ra,ra,289 # 21212121 <end+0x21206ae1>
    5480:	01f00113          	li	sp,31
    5484:	002091b3          	sll	gp,ra,sp
    5488:	80000eb7          	lui	t4,0x80000
    548c:	01000e13          	li	t3,16
    5490:	3fd19463          	bne	gp,t4,5878 <fail>

00005494 <test_17>:
    5494:	212120b7          	lui	ra,0x21212
    5498:	12108093          	addi	ra,ra,289 # 21212121 <end+0x21206ae1>
    549c:	fe000113          	li	sp,-32
    54a0:	002091b3          	sll	gp,ra,sp
    54a4:	21212eb7          	lui	t4,0x21212
    54a8:	121e8e93          	addi	t4,t4,289 # 21212121 <end+0x21206ae1>
    54ac:	01100e13          	li	t3,17
    54b0:	3dd19463          	bne	gp,t4,5878 <fail>

000054b4 <test_18>:
    54b4:	212120b7          	lui	ra,0x21212
    54b8:	12108093          	addi	ra,ra,289 # 21212121 <end+0x21206ae1>
    54bc:	fe100113          	li	sp,-31
    54c0:	002091b3          	sll	gp,ra,sp
    54c4:	42424eb7          	lui	t4,0x42424
    54c8:	242e8e93          	addi	t4,t4,578 # 42424242 <end+0x42418c02>
    54cc:	01200e13          	li	t3,18
    54d0:	3bd19463          	bne	gp,t4,5878 <fail>

000054d4 <test_19>:
    54d4:	212120b7          	lui	ra,0x21212
    54d8:	12108093          	addi	ra,ra,289 # 21212121 <end+0x21206ae1>
    54dc:	fe700113          	li	sp,-25
    54e0:	002091b3          	sll	gp,ra,sp
    54e4:	90909eb7          	lui	t4,0x90909
    54e8:	080e8e93          	addi	t4,t4,128 # 90909080 <end+0x908fda40>
    54ec:	01300e13          	li	t3,19
    54f0:	39d19463          	bne	gp,t4,5878 <fail>

000054f4 <test_20>:
    54f4:	212120b7          	lui	ra,0x21212
    54f8:	12108093          	addi	ra,ra,289 # 21212121 <end+0x21206ae1>
    54fc:	fee00113          	li	sp,-18
    5500:	002091b3          	sll	gp,ra,sp
    5504:	48484eb7          	lui	t4,0x48484
    5508:	01400e13          	li	t3,20
    550c:	37d19663          	bne	gp,t4,5878 <fail>

00005510 <test_21>:
    5510:	212120b7          	lui	ra,0x21212
    5514:	12008093          	addi	ra,ra,288 # 21212120 <end+0x21206ae0>
    5518:	fff00113          	li	sp,-1
    551c:	002091b3          	sll	gp,ra,sp
    5520:	00000e93          	li	t4,0
    5524:	01500e13          	li	t3,21
    5528:	35d19863          	bne	gp,t4,5878 <fail>

0000552c <test_22>:
    552c:	00100093          	li	ra,1
    5530:	00700113          	li	sp,7
    5534:	002090b3          	sll	ra,ra,sp
    5538:	08000e93          	li	t4,128
    553c:	01600e13          	li	t3,22
    5540:	33d09c63          	bne	ra,t4,5878 <fail>

00005544 <test_23>:
    5544:	00100093          	li	ra,1
    5548:	00e00113          	li	sp,14
    554c:	00209133          	sll	sp,ra,sp
    5550:	00004eb7          	lui	t4,0x4
    5554:	01700e13          	li	t3,23
    5558:	33d11063          	bne	sp,t4,5878 <fail>

0000555c <test_24>:
    555c:	00300093          	li	ra,3
    5560:	001090b3          	sll	ra,ra,ra
    5564:	01800e93          	li	t4,24
    5568:	01800e13          	li	t3,24
    556c:	31d09663          	bne	ra,t4,5878 <fail>

00005570 <test_25>:
    5570:	00000213          	li	tp,0
    5574:	00100093          	li	ra,1
    5578:	00700113          	li	sp,7
    557c:	002091b3          	sll	gp,ra,sp
    5580:	00018313          	mv	t1,gp
    5584:	00120213          	addi	tp,tp,1 # 1 <__boot_address-0x17f>
    5588:	00200293          	li	t0,2
    558c:	fe5214e3          	bne	tp,t0,5574 <test_25+0x4>
    5590:	08000e93          	li	t4,128
    5594:	01900e13          	li	t3,25
    5598:	2fd31063          	bne	t1,t4,5878 <fail>

0000559c <test_26>:
    559c:	00000213          	li	tp,0
    55a0:	00100093          	li	ra,1
    55a4:	00e00113          	li	sp,14
    55a8:	002091b3          	sll	gp,ra,sp
    55ac:	00000013          	nop
    55b0:	00018313          	mv	t1,gp
    55b4:	00120213          	addi	tp,tp,1 # 1 <__boot_address-0x17f>
    55b8:	00200293          	li	t0,2
    55bc:	fe5212e3          	bne	tp,t0,55a0 <test_26+0x4>
    55c0:	00004eb7          	lui	t4,0x4
    55c4:	01a00e13          	li	t3,26
    55c8:	2bd31863          	bne	t1,t4,5878 <fail>

000055cc <test_27>:
    55cc:	00000213          	li	tp,0
    55d0:	00100093          	li	ra,1
    55d4:	01f00113          	li	sp,31
    55d8:	002091b3          	sll	gp,ra,sp
    55dc:	00000013          	nop
    55e0:	00000013          	nop
    55e4:	00018313          	mv	t1,gp
    55e8:	00120213          	addi	tp,tp,1 # 1 <__boot_address-0x17f>
    55ec:	00200293          	li	t0,2
    55f0:	fe5210e3          	bne	tp,t0,55d0 <test_27+0x4>
    55f4:	80000eb7          	lui	t4,0x80000
    55f8:	01b00e13          	li	t3,27
    55fc:	27d31e63          	bne	t1,t4,5878 <fail>

00005600 <test_28>:
    5600:	00000213          	li	tp,0
    5604:	00100093          	li	ra,1
    5608:	00700113          	li	sp,7
    560c:	002091b3          	sll	gp,ra,sp
    5610:	00120213          	addi	tp,tp,1 # 1 <__boot_address-0x17f>
    5614:	00200293          	li	t0,2
    5618:	fe5216e3          	bne	tp,t0,5604 <test_28+0x4>
    561c:	08000e93          	li	t4,128
    5620:	01c00e13          	li	t3,28
    5624:	25d19a63          	bne	gp,t4,5878 <fail>

00005628 <test_29>:
    5628:	00000213          	li	tp,0
    562c:	00100093          	li	ra,1
    5630:	00e00113          	li	sp,14
    5634:	00000013          	nop
    5638:	002091b3          	sll	gp,ra,sp
    563c:	00120213          	addi	tp,tp,1 # 1 <__boot_address-0x17f>
    5640:	00200293          	li	t0,2
    5644:	fe5214e3          	bne	tp,t0,562c <test_29+0x4>
    5648:	00004eb7          	lui	t4,0x4
    564c:	01d00e13          	li	t3,29
    5650:	23d19463          	bne	gp,t4,5878 <fail>

00005654 <test_30>:
    5654:	00000213          	li	tp,0
    5658:	00100093          	li	ra,1
    565c:	01f00113          	li	sp,31
    5660:	00000013          	nop
    5664:	00000013          	nop
    5668:	002091b3          	sll	gp,ra,sp
    566c:	00120213          	addi	tp,tp,1 # 1 <__boot_address-0x17f>
    5670:	00200293          	li	t0,2
    5674:	fe5212e3          	bne	tp,t0,5658 <test_30+0x4>
    5678:	80000eb7          	lui	t4,0x80000
    567c:	01e00e13          	li	t3,30
    5680:	1fd19c63          	bne	gp,t4,5878 <fail>

00005684 <test_31>:
    5684:	00000213          	li	tp,0
    5688:	00100093          	li	ra,1
    568c:	00000013          	nop
    5690:	00700113          	li	sp,7
    5694:	002091b3          	sll	gp,ra,sp
    5698:	00120213          	addi	tp,tp,1 # 1 <__boot_address-0x17f>
    569c:	00200293          	li	t0,2
    56a0:	fe5214e3          	bne	tp,t0,5688 <test_31+0x4>
    56a4:	08000e93          	li	t4,128
    56a8:	01f00e13          	li	t3,31
    56ac:	1dd19663          	bne	gp,t4,5878 <fail>

000056b0 <test_32>:
    56b0:	00000213          	li	tp,0
    56b4:	00100093          	li	ra,1
    56b8:	00000013          	nop
    56bc:	00e00113          	li	sp,14
    56c0:	00000013          	nop
    56c4:	002091b3          	sll	gp,ra,sp
    56c8:	00120213          	addi	tp,tp,1 # 1 <__boot_address-0x17f>
    56cc:	00200293          	li	t0,2
    56d0:	fe5212e3          	bne	tp,t0,56b4 <test_32+0x4>
    56d4:	00004eb7          	lui	t4,0x4
    56d8:	02000e13          	li	t3,32
    56dc:	19d19e63          	bne	gp,t4,5878 <fail>

000056e0 <test_33>:
    56e0:	00000213          	li	tp,0
    56e4:	00100093          	li	ra,1
    56e8:	00000013          	nop
    56ec:	00000013          	nop
    56f0:	01f00113          	li	sp,31
    56f4:	002091b3          	sll	gp,ra,sp
    56f8:	00120213          	addi	tp,tp,1 # 1 <__boot_address-0x17f>
    56fc:	00200293          	li	t0,2
    5700:	fe5212e3          	bne	tp,t0,56e4 <test_33+0x4>
    5704:	80000eb7          	lui	t4,0x80000
    5708:	02100e13          	li	t3,33
    570c:	17d19663          	bne	gp,t4,5878 <fail>

00005710 <test_34>:
    5710:	00000213          	li	tp,0
    5714:	00700113          	li	sp,7
    5718:	00100093          	li	ra,1
    571c:	002091b3          	sll	gp,ra,sp
    5720:	00120213          	addi	tp,tp,1 # 1 <__boot_address-0x17f>
    5724:	00200293          	li	t0,2
    5728:	fe5216e3          	bne	tp,t0,5714 <test_34+0x4>
    572c:	08000e93          	li	t4,128
    5730:	02200e13          	li	t3,34
    5734:	15d19263          	bne	gp,t4,5878 <fail>

00005738 <test_35>:
    5738:	00000213          	li	tp,0
    573c:	00e00113          	li	sp,14
    5740:	00100093          	li	ra,1
    5744:	00000013          	nop
    5748:	002091b3          	sll	gp,ra,sp
    574c:	00120213          	addi	tp,tp,1 # 1 <__boot_address-0x17f>
    5750:	00200293          	li	t0,2
    5754:	fe5214e3          	bne	tp,t0,573c <test_35+0x4>
    5758:	00004eb7          	lui	t4,0x4
    575c:	02300e13          	li	t3,35
    5760:	11d19c63          	bne	gp,t4,5878 <fail>

00005764 <test_36>:
    5764:	00000213          	li	tp,0
    5768:	01f00113          	li	sp,31
    576c:	00100093          	li	ra,1
    5770:	00000013          	nop
    5774:	00000013          	nop
    5778:	002091b3          	sll	gp,ra,sp
    577c:	00120213          	addi	tp,tp,1 # 1 <__boot_address-0x17f>
    5780:	00200293          	li	t0,2
    5784:	fe5212e3          	bne	tp,t0,5768 <test_36+0x4>
    5788:	80000eb7          	lui	t4,0x80000
    578c:	02400e13          	li	t3,36
    5790:	0fd19463          	bne	gp,t4,5878 <fail>

00005794 <test_37>:
    5794:	00000213          	li	tp,0
    5798:	00700113          	li	sp,7
    579c:	00000013          	nop
    57a0:	00100093          	li	ra,1
    57a4:	002091b3          	sll	gp,ra,sp
    57a8:	00120213          	addi	tp,tp,1 # 1 <__boot_address-0x17f>
    57ac:	00200293          	li	t0,2
    57b0:	fe5214e3          	bne	tp,t0,5798 <test_37+0x4>
    57b4:	08000e93          	li	t4,128
    57b8:	02500e13          	li	t3,37
    57bc:	0bd19e63          	bne	gp,t4,5878 <fail>

000057c0 <test_38>:
    57c0:	00000213          	li	tp,0
    57c4:	00e00113          	li	sp,14
    57c8:	00000013          	nop
    57cc:	00100093          	li	ra,1
    57d0:	00000013          	nop
    57d4:	002091b3          	sll	gp,ra,sp
    57d8:	00120213          	addi	tp,tp,1 # 1 <__boot_address-0x17f>
    57dc:	00200293          	li	t0,2
    57e0:	fe5212e3          	bne	tp,t0,57c4 <test_38+0x4>
    57e4:	00004eb7          	lui	t4,0x4
    57e8:	02600e13          	li	t3,38
    57ec:	09d19663          	bne	gp,t4,5878 <fail>

000057f0 <test_39>:
    57f0:	00000213          	li	tp,0
    57f4:	01f00113          	li	sp,31
    57f8:	00000013          	nop
    57fc:	00000013          	nop
    5800:	00100093          	li	ra,1
    5804:	002091b3          	sll	gp,ra,sp
    5808:	00120213          	addi	tp,tp,1 # 1 <__boot_address-0x17f>
    580c:	00200293          	li	t0,2
    5810:	fe5212e3          	bne	tp,t0,57f4 <test_39+0x4>
    5814:	80000eb7          	lui	t4,0x80000
    5818:	02700e13          	li	t3,39
    581c:	05d19e63          	bne	gp,t4,5878 <fail>

00005820 <test_40>:
    5820:	00f00093          	li	ra,15
    5824:	00101133          	sll	sp,zero,ra
    5828:	00000e93          	li	t4,0
    582c:	02800e13          	li	t3,40
    5830:	05d11463          	bne	sp,t4,5878 <fail>

00005834 <test_41>:
    5834:	02000093          	li	ra,32
    5838:	00009133          	sll	sp,ra,zero
    583c:	02000e93          	li	t4,32
    5840:	02900e13          	li	t3,41
    5844:	03d11a63          	bne	sp,t4,5878 <fail>

00005848 <test_42>:
    5848:	000010b3          	sll	ra,zero,zero
    584c:	00000e93          	li	t4,0
    5850:	02a00e13          	li	t3,42
    5854:	03d09263          	bne	ra,t4,5878 <fail>

00005858 <test_43>:
    5858:	40000093          	li	ra,1024
    585c:	00001137          	lui	sp,0x1
    5860:	80010113          	addi	sp,sp,-2048 # 800 <test_2+0x14>
    5864:	00209033          	sll	zero,ra,sp
    5868:	00000e93          	li	t4,0
    586c:	02b00e13          	li	t3,43
    5870:	01d01463          	bne	zero,t4,5878 <fail>
    5874:	03c01a63          	bne	zero,t3,58a8 <pass>

00005878 <fail>:
    5878:	10000537          	lui	a0,0x10000
    587c:	04500593          	li	a1,69
    5880:	05200613          	li	a2,82
    5884:	04f00693          	li	a3,79
    5888:	00a00713          	li	a4,10
    588c:	00b52023          	sw	a1,0(a0) # 10000000 <end+0xfff49c0>
    5890:	00c52023          	sw	a2,0(a0)
    5894:	00c52023          	sw	a2,0(a0)
    5898:	00d52023          	sw	a3,0(a0)
    589c:	00c52023          	sw	a2,0(a0)
    58a0:	00e52023          	sw	a4,0(a0)
    58a4:	00100073          	ebreak

000058a8 <pass>:
    58a8:	10000537          	lui	a0,0x10000
    58ac:	04f00593          	li	a1,79
    58b0:	04b00613          	li	a2,75
    58b4:	00a00693          	li	a3,10
    58b8:	00b52023          	sw	a1,0(a0) # 10000000 <end+0xfff49c0>
    58bc:	00c52023          	sw	a2,0(a0)
    58c0:	00d52023          	sw	a3,0(a0)
    58c4:	000f0113          	mv	sp,t5
    58c8:	ffc12183          	lw	gp,-4(sp)
    58cc:	ff812083          	lw	ra,-8(sp)
    58d0:	a89fa06f          	j	358 <sll_ret>

000058d4 <slti>:
    58d4:	00010f13          	mv	t5,sp
    58d8:	fe312e23          	sw	gp,-4(sp)
    58dc:	fe112c23          	sw	ra,-8(sp)
    58e0:	0000b537          	lui	a0,0xb
    58e4:	3e050513          	addi	a0,a0,992 # b3e0 <slti_data>
    58e8:	10000637          	lui	a2,0x10000

000058ec <.prname_next>:
    58ec:	00050583          	lb	a1,0(a0)
    58f0:	00058863          	beqz	a1,5900 <.prname_done>
    58f4:	00b62023          	sw	a1,0(a2) # 10000000 <end+0xfff49c0>
    58f8:	00150513          	addi	a0,a0,1
    58fc:	ff1ff06f          	j	58ec <.prname_next>

00005900 <.prname_done>:
    5900:	02e00593          	li	a1,46
    5904:	00b62023          	sw	a1,0(a2)
    5908:	00b62023          	sw	a1,0(a2)

0000590c <test_2>:
    590c:	00000093          	li	ra,0
    5910:	0000a193          	slti	gp,ra,0
    5914:	00000e93          	li	t4,0
    5918:	00200e13          	li	t3,2
    591c:	27d19263          	bne	gp,t4,5b80 <fail>

00005920 <test_3>:
    5920:	00100093          	li	ra,1
    5924:	0010a193          	slti	gp,ra,1
    5928:	00000e93          	li	t4,0
    592c:	00300e13          	li	t3,3
    5930:	25d19863          	bne	gp,t4,5b80 <fail>

00005934 <test_4>:
    5934:	00300093          	li	ra,3
    5938:	0070a193          	slti	gp,ra,7
    593c:	00100e93          	li	t4,1
    5940:	00400e13          	li	t3,4
    5944:	23d19e63          	bne	gp,t4,5b80 <fail>

00005948 <test_5>:
    5948:	00700093          	li	ra,7
    594c:	0030a193          	slti	gp,ra,3
    5950:	00000e93          	li	t4,0
    5954:	00500e13          	li	t3,5
    5958:	23d19463          	bne	gp,t4,5b80 <fail>

0000595c <test_6>:
    595c:	00000093          	li	ra,0
    5960:	8000a193          	slti	gp,ra,-2048
    5964:	00000e93          	li	t4,0
    5968:	00600e13          	li	t3,6
    596c:	21d19a63          	bne	gp,t4,5b80 <fail>

00005970 <test_7>:
    5970:	800000b7          	lui	ra,0x80000
    5974:	0000a193          	slti	gp,ra,0
    5978:	00100e93          	li	t4,1
    597c:	00700e13          	li	t3,7
    5980:	21d19063          	bne	gp,t4,5b80 <fail>

00005984 <test_8>:
    5984:	800000b7          	lui	ra,0x80000
    5988:	8000a193          	slti	gp,ra,-2048
    598c:	00100e93          	li	t4,1
    5990:	00800e13          	li	t3,8
    5994:	1fd19663          	bne	gp,t4,5b80 <fail>

00005998 <test_9>:
    5998:	00000093          	li	ra,0
    599c:	7ff0a193          	slti	gp,ra,2047
    59a0:	00100e93          	li	t4,1
    59a4:	00900e13          	li	t3,9
    59a8:	1dd19c63          	bne	gp,t4,5b80 <fail>

000059ac <test_10>:
    59ac:	800000b7          	lui	ra,0x80000
    59b0:	fff08093          	addi	ra,ra,-1 # 7fffffff <end+0x7fff49bf>
    59b4:	0000a193          	slti	gp,ra,0
    59b8:	00000e93          	li	t4,0
    59bc:	00a00e13          	li	t3,10
    59c0:	1dd19063          	bne	gp,t4,5b80 <fail>

000059c4 <test_11>:
    59c4:	800000b7          	lui	ra,0x80000
    59c8:	fff08093          	addi	ra,ra,-1 # 7fffffff <end+0x7fff49bf>
    59cc:	7ff0a193          	slti	gp,ra,2047
    59d0:	00000e93          	li	t4,0
    59d4:	00b00e13          	li	t3,11
    59d8:	1bd19463          	bne	gp,t4,5b80 <fail>

000059dc <test_12>:
    59dc:	800000b7          	lui	ra,0x80000
    59e0:	7ff0a193          	slti	gp,ra,2047
    59e4:	00100e93          	li	t4,1
    59e8:	00c00e13          	li	t3,12
    59ec:	19d19a63          	bne	gp,t4,5b80 <fail>

000059f0 <test_13>:
    59f0:	800000b7          	lui	ra,0x80000
    59f4:	fff08093          	addi	ra,ra,-1 # 7fffffff <end+0x7fff49bf>
    59f8:	8000a193          	slti	gp,ra,-2048
    59fc:	00000e93          	li	t4,0
    5a00:	00d00e13          	li	t3,13
    5a04:	17d19e63          	bne	gp,t4,5b80 <fail>

00005a08 <test_14>:
    5a08:	00000093          	li	ra,0
    5a0c:	fff0a193          	slti	gp,ra,-1
    5a10:	00000e93          	li	t4,0
    5a14:	00e00e13          	li	t3,14
    5a18:	17d19463          	bne	gp,t4,5b80 <fail>

00005a1c <test_15>:
    5a1c:	fff00093          	li	ra,-1
    5a20:	0010a193          	slti	gp,ra,1
    5a24:	00100e93          	li	t4,1
    5a28:	00f00e13          	li	t3,15
    5a2c:	15d19a63          	bne	gp,t4,5b80 <fail>

00005a30 <test_16>:
    5a30:	fff00093          	li	ra,-1
    5a34:	fff0a193          	slti	gp,ra,-1
    5a38:	00000e93          	li	t4,0
    5a3c:	01000e13          	li	t3,16
    5a40:	15d19063          	bne	gp,t4,5b80 <fail>

00005a44 <test_17>:
    5a44:	00b00093          	li	ra,11
    5a48:	00d0b093          	sltiu	ra,ra,13
    5a4c:	00100e93          	li	t4,1
    5a50:	01100e13          	li	t3,17
    5a54:	13d09663          	bne	ra,t4,5b80 <fail>

00005a58 <test_18>:
    5a58:	00000213          	li	tp,0
    5a5c:	00f00093          	li	ra,15
    5a60:	00a0a193          	slti	gp,ra,10
    5a64:	00018313          	mv	t1,gp
    5a68:	00120213          	addi	tp,tp,1 # 1 <__boot_address-0x17f>
    5a6c:	00200293          	li	t0,2
    5a70:	fe5216e3          	bne	tp,t0,5a5c <test_18+0x4>
    5a74:	00000e93          	li	t4,0
    5a78:	01200e13          	li	t3,18
    5a7c:	11d31263          	bne	t1,t4,5b80 <fail>

00005a80 <test_19>:
    5a80:	00000213          	li	tp,0
    5a84:	00a00093          	li	ra,10
    5a88:	0100a193          	slti	gp,ra,16
    5a8c:	00000013          	nop
    5a90:	00018313          	mv	t1,gp
    5a94:	00120213          	addi	tp,tp,1 # 1 <__boot_address-0x17f>
    5a98:	00200293          	li	t0,2
    5a9c:	fe5214e3          	bne	tp,t0,5a84 <test_19+0x4>
    5aa0:	00100e93          	li	t4,1
    5aa4:	01300e13          	li	t3,19
    5aa8:	0dd31c63          	bne	t1,t4,5b80 <fail>

00005aac <test_20>:
    5aac:	00000213          	li	tp,0
    5ab0:	01000093          	li	ra,16
    5ab4:	0090a193          	slti	gp,ra,9
    5ab8:	00000013          	nop
    5abc:	00000013          	nop
    5ac0:	00018313          	mv	t1,gp
    5ac4:	00120213          	addi	tp,tp,1 # 1 <__boot_address-0x17f>
    5ac8:	00200293          	li	t0,2
    5acc:	fe5212e3          	bne	tp,t0,5ab0 <test_20+0x4>
    5ad0:	00000e93          	li	t4,0
    5ad4:	01400e13          	li	t3,20
    5ad8:	0bd31463          	bne	t1,t4,5b80 <fail>

00005adc <test_21>:
    5adc:	00000213          	li	tp,0
    5ae0:	00b00093          	li	ra,11
    5ae4:	00f0a193          	slti	gp,ra,15
    5ae8:	00120213          	addi	tp,tp,1 # 1 <__boot_address-0x17f>
    5aec:	00200293          	li	t0,2
    5af0:	fe5218e3          	bne	tp,t0,5ae0 <test_21+0x4>
    5af4:	00100e93          	li	t4,1
    5af8:	01500e13          	li	t3,21
    5afc:	09d19263          	bne	gp,t4,5b80 <fail>

00005b00 <test_22>:
    5b00:	00000213          	li	tp,0
    5b04:	01100093          	li	ra,17
    5b08:	00000013          	nop
    5b0c:	0080a193          	slti	gp,ra,8
    5b10:	00120213          	addi	tp,tp,1 # 1 <__boot_address-0x17f>
    5b14:	00200293          	li	t0,2
    5b18:	fe5216e3          	bne	tp,t0,5b04 <test_22+0x4>
    5b1c:	00000e93          	li	t4,0
    5b20:	01600e13          	li	t3,22
    5b24:	05d19e63          	bne	gp,t4,5b80 <fail>

00005b28 <test_23>:
    5b28:	00000213          	li	tp,0
    5b2c:	00c00093          	li	ra,12
    5b30:	00000013          	nop
    5b34:	00000013          	nop
    5b38:	00e0a193          	slti	gp,ra,14
    5b3c:	00120213          	addi	tp,tp,1 # 1 <__boot_address-0x17f>
    5b40:	00200293          	li	t0,2
    5b44:	fe5214e3          	bne	tp,t0,5b2c <test_23+0x4>
    5b48:	00100e93          	li	t4,1
    5b4c:	01700e13          	li	t3,23
    5b50:	03d19863          	bne	gp,t4,5b80 <fail>

00005b54 <test_24>:
    5b54:	fff02093          	slti	ra,zero,-1
    5b58:	00000e93          	li	t4,0
    5b5c:	01800e13          	li	t3,24
    5b60:	03d09063          	bne	ra,t4,5b80 <fail>

00005b64 <test_25>:
    5b64:	00ff00b7          	lui	ra,0xff0
    5b68:	0ff08093          	addi	ra,ra,255 # ff00ff <end+0xfe4abf>
    5b6c:	fff0a013          	slti	zero,ra,-1
    5b70:	00000e93          	li	t4,0
    5b74:	01900e13          	li	t3,25
    5b78:	01d01463          	bne	zero,t4,5b80 <fail>
    5b7c:	03c01a63          	bne	zero,t3,5bb0 <pass>

00005b80 <fail>:
    5b80:	10000537          	lui	a0,0x10000
    5b84:	04500593          	li	a1,69
    5b88:	05200613          	li	a2,82
    5b8c:	04f00693          	li	a3,79
    5b90:	00a00713          	li	a4,10
    5b94:	00b52023          	sw	a1,0(a0) # 10000000 <end+0xfff49c0>
    5b98:	00c52023          	sw	a2,0(a0)
    5b9c:	00c52023          	sw	a2,0(a0)
    5ba0:	00d52023          	sw	a3,0(a0)
    5ba4:	00c52023          	sw	a2,0(a0)
    5ba8:	00e52023          	sw	a4,0(a0)
    5bac:	00100073          	ebreak

00005bb0 <pass>:
    5bb0:	10000537          	lui	a0,0x10000
    5bb4:	04f00593          	li	a1,79
    5bb8:	04b00613          	li	a2,75
    5bbc:	00a00693          	li	a3,10
    5bc0:	00b52023          	sw	a1,0(a0) # 10000000 <end+0xfff49c0>
    5bc4:	00c52023          	sw	a2,0(a0)
    5bc8:	00d52023          	sw	a3,0(a0)
    5bcc:	000f0113          	mv	sp,t5
    5bd0:	ffc12183          	lw	gp,-4(sp)
    5bd4:	ff812083          	lw	ra,-8(sp)
    5bd8:	f38fa06f          	j	310 <slti_ret>

00005bdc <slt>:
    5bdc:	00010f13          	mv	t5,sp
    5be0:	fe312e23          	sw	gp,-4(sp)
    5be4:	fe112c23          	sw	ra,-8(sp)
    5be8:	0000b537          	lui	a0,0xb
    5bec:	40450513          	addi	a0,a0,1028 # b404 <slt_data>
    5bf0:	10000637          	lui	a2,0x10000

00005bf4 <.prname_next>:
    5bf4:	00050583          	lb	a1,0(a0)
    5bf8:	00058863          	beqz	a1,5c08 <.prname_done>
    5bfc:	00b62023          	sw	a1,0(a2) # 10000000 <end+0xfff49c0>
    5c00:	00150513          	addi	a0,a0,1
    5c04:	ff1ff06f          	j	5bf4 <.prname_next>

00005c08 <.prname_done>:
    5c08:	02e00593          	li	a1,46
    5c0c:	00b62023          	sw	a1,0(a2)
    5c10:	00b62023          	sw	a1,0(a2)

00005c14 <test_2>:
    5c14:	00000093          	li	ra,0
    5c18:	00000113          	li	sp,0
    5c1c:	0020a1b3          	slt	gp,ra,sp
    5c20:	00000e93          	li	t4,0
    5c24:	00200e13          	li	t3,2
    5c28:	4bd19a63          	bne	gp,t4,60dc <fail>

00005c2c <test_3>:
    5c2c:	00100093          	li	ra,1
    5c30:	00100113          	li	sp,1
    5c34:	0020a1b3          	slt	gp,ra,sp
    5c38:	00000e93          	li	t4,0
    5c3c:	00300e13          	li	t3,3
    5c40:	49d19e63          	bne	gp,t4,60dc <fail>

00005c44 <test_4>:
    5c44:	00300093          	li	ra,3
    5c48:	00700113          	li	sp,7
    5c4c:	0020a1b3          	slt	gp,ra,sp
    5c50:	00100e93          	li	t4,1
    5c54:	00400e13          	li	t3,4
    5c58:	49d19263          	bne	gp,t4,60dc <fail>

00005c5c <test_5>:
    5c5c:	00700093          	li	ra,7
    5c60:	00300113          	li	sp,3
    5c64:	0020a1b3          	slt	gp,ra,sp
    5c68:	00000e93          	li	t4,0
    5c6c:	00500e13          	li	t3,5
    5c70:	47d19663          	bne	gp,t4,60dc <fail>

00005c74 <test_6>:
    5c74:	00000093          	li	ra,0
    5c78:	ffff8137          	lui	sp,0xffff8
    5c7c:	0020a1b3          	slt	gp,ra,sp
    5c80:	00000e93          	li	t4,0
    5c84:	00600e13          	li	t3,6
    5c88:	45d19a63          	bne	gp,t4,60dc <fail>

00005c8c <test_7>:
    5c8c:	800000b7          	lui	ra,0x80000
    5c90:	00000113          	li	sp,0
    5c94:	0020a1b3          	slt	gp,ra,sp
    5c98:	00100e93          	li	t4,1
    5c9c:	00700e13          	li	t3,7
    5ca0:	43d19e63          	bne	gp,t4,60dc <fail>

00005ca4 <test_8>:
    5ca4:	800000b7          	lui	ra,0x80000
    5ca8:	ffff8137          	lui	sp,0xffff8
    5cac:	0020a1b3          	slt	gp,ra,sp
    5cb0:	00100e93          	li	t4,1
    5cb4:	00800e13          	li	t3,8
    5cb8:	43d19263          	bne	gp,t4,60dc <fail>

00005cbc <test_9>:
    5cbc:	00000093          	li	ra,0
    5cc0:	00008137          	lui	sp,0x8
    5cc4:	fff10113          	addi	sp,sp,-1 # 7fff <test_9+0x1f>
    5cc8:	0020a1b3          	slt	gp,ra,sp
    5ccc:	00100e93          	li	t4,1
    5cd0:	00900e13          	li	t3,9
    5cd4:	41d19463          	bne	gp,t4,60dc <fail>

00005cd8 <test_10>:
    5cd8:	800000b7          	lui	ra,0x80000
    5cdc:	fff08093          	addi	ra,ra,-1 # 7fffffff <end+0x7fff49bf>
    5ce0:	00000113          	li	sp,0
    5ce4:	0020a1b3          	slt	gp,ra,sp
    5ce8:	00000e93          	li	t4,0
    5cec:	00a00e13          	li	t3,10
    5cf0:	3fd19663          	bne	gp,t4,60dc <fail>

00005cf4 <test_11>:
    5cf4:	800000b7          	lui	ra,0x80000
    5cf8:	fff08093          	addi	ra,ra,-1 # 7fffffff <end+0x7fff49bf>
    5cfc:	00008137          	lui	sp,0x8
    5d00:	fff10113          	addi	sp,sp,-1 # 7fff <test_9+0x1f>
    5d04:	0020a1b3          	slt	gp,ra,sp
    5d08:	00000e93          	li	t4,0
    5d0c:	00b00e13          	li	t3,11
    5d10:	3dd19663          	bne	gp,t4,60dc <fail>

00005d14 <test_12>:
    5d14:	800000b7          	lui	ra,0x80000
    5d18:	00008137          	lui	sp,0x8
    5d1c:	fff10113          	addi	sp,sp,-1 # 7fff <test_9+0x1f>
    5d20:	0020a1b3          	slt	gp,ra,sp
    5d24:	00100e93          	li	t4,1
    5d28:	00c00e13          	li	t3,12
    5d2c:	3bd19863          	bne	gp,t4,60dc <fail>

00005d30 <test_13>:
    5d30:	800000b7          	lui	ra,0x80000
    5d34:	fff08093          	addi	ra,ra,-1 # 7fffffff <end+0x7fff49bf>
    5d38:	ffff8137          	lui	sp,0xffff8
    5d3c:	0020a1b3          	slt	gp,ra,sp
    5d40:	00000e93          	li	t4,0
    5d44:	00d00e13          	li	t3,13
    5d48:	39d19a63          	bne	gp,t4,60dc <fail>

00005d4c <test_14>:
    5d4c:	00000093          	li	ra,0
    5d50:	fff00113          	li	sp,-1
    5d54:	0020a1b3          	slt	gp,ra,sp
    5d58:	00000e93          	li	t4,0
    5d5c:	00e00e13          	li	t3,14
    5d60:	37d19e63          	bne	gp,t4,60dc <fail>

00005d64 <test_15>:
    5d64:	fff00093          	li	ra,-1
    5d68:	00100113          	li	sp,1
    5d6c:	0020a1b3          	slt	gp,ra,sp
    5d70:	00100e93          	li	t4,1
    5d74:	00f00e13          	li	t3,15
    5d78:	37d19263          	bne	gp,t4,60dc <fail>

00005d7c <test_16>:
    5d7c:	fff00093          	li	ra,-1
    5d80:	fff00113          	li	sp,-1
    5d84:	0020a1b3          	slt	gp,ra,sp
    5d88:	00000e93          	li	t4,0
    5d8c:	01000e13          	li	t3,16
    5d90:	35d19663          	bne	gp,t4,60dc <fail>

00005d94 <test_17>:
    5d94:	00e00093          	li	ra,14
    5d98:	00d00113          	li	sp,13
    5d9c:	0020a0b3          	slt	ra,ra,sp
    5da0:	00000e93          	li	t4,0
    5da4:	01100e13          	li	t3,17
    5da8:	33d09a63          	bne	ra,t4,60dc <fail>

00005dac <test_18>:
    5dac:	00b00093          	li	ra,11
    5db0:	00d00113          	li	sp,13
    5db4:	0020a133          	slt	sp,ra,sp
    5db8:	00100e93          	li	t4,1
    5dbc:	01200e13          	li	t3,18
    5dc0:	31d11e63          	bne	sp,t4,60dc <fail>

00005dc4 <test_19>:
    5dc4:	00d00093          	li	ra,13
    5dc8:	0010a0b3          	slt	ra,ra,ra
    5dcc:	00000e93          	li	t4,0
    5dd0:	01300e13          	li	t3,19
    5dd4:	31d09463          	bne	ra,t4,60dc <fail>

00005dd8 <test_20>:
    5dd8:	00000213          	li	tp,0
    5ddc:	00b00093          	li	ra,11
    5de0:	00d00113          	li	sp,13
    5de4:	0020a1b3          	slt	gp,ra,sp
    5de8:	00018313          	mv	t1,gp
    5dec:	00120213          	addi	tp,tp,1 # 1 <__boot_address-0x17f>
    5df0:	00200293          	li	t0,2
    5df4:	fe5214e3          	bne	tp,t0,5ddc <test_20+0x4>
    5df8:	00100e93          	li	t4,1
    5dfc:	01400e13          	li	t3,20
    5e00:	2dd31e63          	bne	t1,t4,60dc <fail>

00005e04 <test_21>:
    5e04:	00000213          	li	tp,0
    5e08:	00e00093          	li	ra,14
    5e0c:	00d00113          	li	sp,13
    5e10:	0020a1b3          	slt	gp,ra,sp
    5e14:	00000013          	nop
    5e18:	00018313          	mv	t1,gp
    5e1c:	00120213          	addi	tp,tp,1 # 1 <__boot_address-0x17f>
    5e20:	00200293          	li	t0,2
    5e24:	fe5212e3          	bne	tp,t0,5e08 <test_21+0x4>
    5e28:	00000e93          	li	t4,0
    5e2c:	01500e13          	li	t3,21
    5e30:	2bd31663          	bne	t1,t4,60dc <fail>

00005e34 <test_22>:
    5e34:	00000213          	li	tp,0
    5e38:	00c00093          	li	ra,12
    5e3c:	00d00113          	li	sp,13
    5e40:	0020a1b3          	slt	gp,ra,sp
    5e44:	00000013          	nop
    5e48:	00000013          	nop
    5e4c:	00018313          	mv	t1,gp
    5e50:	00120213          	addi	tp,tp,1 # 1 <__boot_address-0x17f>
    5e54:	00200293          	li	t0,2
    5e58:	fe5210e3          	bne	tp,t0,5e38 <test_22+0x4>
    5e5c:	00100e93          	li	t4,1
    5e60:	01600e13          	li	t3,22
    5e64:	27d31c63          	bne	t1,t4,60dc <fail>

00005e68 <test_23>:
    5e68:	00000213          	li	tp,0
    5e6c:	00e00093          	li	ra,14
    5e70:	00d00113          	li	sp,13
    5e74:	0020a1b3          	slt	gp,ra,sp
    5e78:	00120213          	addi	tp,tp,1 # 1 <__boot_address-0x17f>
    5e7c:	00200293          	li	t0,2
    5e80:	fe5216e3          	bne	tp,t0,5e6c <test_23+0x4>
    5e84:	00000e93          	li	t4,0
    5e88:	01700e13          	li	t3,23
    5e8c:	25d19863          	bne	gp,t4,60dc <fail>

00005e90 <test_24>:
    5e90:	00000213          	li	tp,0
    5e94:	00b00093          	li	ra,11
    5e98:	00d00113          	li	sp,13
    5e9c:	00000013          	nop
    5ea0:	0020a1b3          	slt	gp,ra,sp
    5ea4:	00120213          	addi	tp,tp,1 # 1 <__boot_address-0x17f>
    5ea8:	00200293          	li	t0,2
    5eac:	fe5214e3          	bne	tp,t0,5e94 <test_24+0x4>
    5eb0:	00100e93          	li	t4,1
    5eb4:	01800e13          	li	t3,24
    5eb8:	23d19263          	bne	gp,t4,60dc <fail>

00005ebc <test_25>:
    5ebc:	00000213          	li	tp,0
    5ec0:	00f00093          	li	ra,15
    5ec4:	00d00113          	li	sp,13
    5ec8:	00000013          	nop
    5ecc:	00000013          	nop
    5ed0:	0020a1b3          	slt	gp,ra,sp
    5ed4:	00120213          	addi	tp,tp,1 # 1 <__boot_address-0x17f>
    5ed8:	00200293          	li	t0,2
    5edc:	fe5212e3          	bne	tp,t0,5ec0 <test_25+0x4>
    5ee0:	00000e93          	li	t4,0
    5ee4:	01900e13          	li	t3,25
    5ee8:	1fd19a63          	bne	gp,t4,60dc <fail>

00005eec <test_26>:
    5eec:	00000213          	li	tp,0
    5ef0:	00a00093          	li	ra,10
    5ef4:	00000013          	nop
    5ef8:	00d00113          	li	sp,13
    5efc:	0020a1b3          	slt	gp,ra,sp
    5f00:	00120213          	addi	tp,tp,1 # 1 <__boot_address-0x17f>
    5f04:	00200293          	li	t0,2
    5f08:	fe5214e3          	bne	tp,t0,5ef0 <test_26+0x4>
    5f0c:	00100e93          	li	t4,1
    5f10:	01a00e13          	li	t3,26
    5f14:	1dd19463          	bne	gp,t4,60dc <fail>

00005f18 <test_27>:
    5f18:	00000213          	li	tp,0
    5f1c:	01000093          	li	ra,16
    5f20:	00000013          	nop
    5f24:	00d00113          	li	sp,13
    5f28:	00000013          	nop
    5f2c:	0020a1b3          	slt	gp,ra,sp
    5f30:	00120213          	addi	tp,tp,1 # 1 <__boot_address-0x17f>
    5f34:	00200293          	li	t0,2
    5f38:	fe5212e3          	bne	tp,t0,5f1c <test_27+0x4>
    5f3c:	00000e93          	li	t4,0
    5f40:	01b00e13          	li	t3,27
    5f44:	19d19c63          	bne	gp,t4,60dc <fail>

00005f48 <test_28>:
    5f48:	00000213          	li	tp,0
    5f4c:	00900093          	li	ra,9
    5f50:	00000013          	nop
    5f54:	00000013          	nop
    5f58:	00d00113          	li	sp,13
    5f5c:	0020a1b3          	slt	gp,ra,sp
    5f60:	00120213          	addi	tp,tp,1 # 1 <__boot_address-0x17f>
    5f64:	00200293          	li	t0,2
    5f68:	fe5212e3          	bne	tp,t0,5f4c <test_28+0x4>
    5f6c:	00100e93          	li	t4,1
    5f70:	01c00e13          	li	t3,28
    5f74:	17d19463          	bne	gp,t4,60dc <fail>

00005f78 <test_29>:
    5f78:	00000213          	li	tp,0
    5f7c:	00d00113          	li	sp,13
    5f80:	01100093          	li	ra,17
    5f84:	0020a1b3          	slt	gp,ra,sp
    5f88:	00120213          	addi	tp,tp,1 # 1 <__boot_address-0x17f>
    5f8c:	00200293          	li	t0,2
    5f90:	fe5216e3          	bne	tp,t0,5f7c <test_29+0x4>
    5f94:	00000e93          	li	t4,0
    5f98:	01d00e13          	li	t3,29
    5f9c:	15d19063          	bne	gp,t4,60dc <fail>

00005fa0 <test_30>:
    5fa0:	00000213          	li	tp,0
    5fa4:	00d00113          	li	sp,13
    5fa8:	00800093          	li	ra,8
    5fac:	00000013          	nop
    5fb0:	0020a1b3          	slt	gp,ra,sp
    5fb4:	00120213          	addi	tp,tp,1 # 1 <__boot_address-0x17f>
    5fb8:	00200293          	li	t0,2
    5fbc:	fe5214e3          	bne	tp,t0,5fa4 <test_30+0x4>
    5fc0:	00100e93          	li	t4,1
    5fc4:	01e00e13          	li	t3,30
    5fc8:	11d19a63          	bne	gp,t4,60dc <fail>

00005fcc <test_31>:
    5fcc:	00000213          	li	tp,0
    5fd0:	00d00113          	li	sp,13
    5fd4:	01200093          	li	ra,18
    5fd8:	00000013          	nop
    5fdc:	00000013          	nop
    5fe0:	0020a1b3          	slt	gp,ra,sp
    5fe4:	00120213          	addi	tp,tp,1 # 1 <__boot_address-0x17f>
    5fe8:	00200293          	li	t0,2
    5fec:	fe5212e3          	bne	tp,t0,5fd0 <test_31+0x4>
    5ff0:	00000e93          	li	t4,0
    5ff4:	01f00e13          	li	t3,31
    5ff8:	0fd19263          	bne	gp,t4,60dc <fail>

00005ffc <test_32>:
    5ffc:	00000213          	li	tp,0
    6000:	00d00113          	li	sp,13
    6004:	00000013          	nop
    6008:	00700093          	li	ra,7
    600c:	0020a1b3          	slt	gp,ra,sp
    6010:	00120213          	addi	tp,tp,1 # 1 <__boot_address-0x17f>
    6014:	00200293          	li	t0,2
    6018:	fe5214e3          	bne	tp,t0,6000 <test_32+0x4>
    601c:	00100e93          	li	t4,1
    6020:	02000e13          	li	t3,32
    6024:	0bd19c63          	bne	gp,t4,60dc <fail>

00006028 <test_33>:
    6028:	00000213          	li	tp,0
    602c:	00d00113          	li	sp,13
    6030:	00000013          	nop
    6034:	01300093          	li	ra,19
    6038:	00000013          	nop
    603c:	0020a1b3          	slt	gp,ra,sp
    6040:	00120213          	addi	tp,tp,1 # 1 <__boot_address-0x17f>
    6044:	00200293          	li	t0,2
    6048:	fe5212e3          	bne	tp,t0,602c <test_33+0x4>
    604c:	00000e93          	li	t4,0
    6050:	02100e13          	li	t3,33
    6054:	09d19463          	bne	gp,t4,60dc <fail>

00006058 <test_34>:
    6058:	00000213          	li	tp,0
    605c:	00d00113          	li	sp,13
    6060:	00000013          	nop
    6064:	00000013          	nop
    6068:	00600093          	li	ra,6
    606c:	0020a1b3          	slt	gp,ra,sp
    6070:	00120213          	addi	tp,tp,1 # 1 <__boot_address-0x17f>
    6074:	00200293          	li	t0,2
    6078:	fe5212e3          	bne	tp,t0,605c <test_34+0x4>
    607c:	00100e93          	li	t4,1
    6080:	02200e13          	li	t3,34
    6084:	05d19c63          	bne	gp,t4,60dc <fail>

00006088 <test_35>:
    6088:	fff00093          	li	ra,-1
    608c:	00102133          	sgtz	sp,ra
    6090:	00000e93          	li	t4,0
    6094:	02300e13          	li	t3,35
    6098:	05d11263          	bne	sp,t4,60dc <fail>

0000609c <test_36>:
    609c:	fff00093          	li	ra,-1
    60a0:	0000a133          	sltz	sp,ra
    60a4:	00100e93          	li	t4,1
    60a8:	02400e13          	li	t3,36
    60ac:	03d11863          	bne	sp,t4,60dc <fail>

000060b0 <test_37>:
    60b0:	000020b3          	sltz	ra,zero
    60b4:	00000e93          	li	t4,0
    60b8:	02500e13          	li	t3,37
    60bc:	03d09063          	bne	ra,t4,60dc <fail>

000060c0 <test_38>:
    60c0:	01000093          	li	ra,16
    60c4:	01e00113          	li	sp,30
    60c8:	0020a033          	slt	zero,ra,sp
    60cc:	00000e93          	li	t4,0
    60d0:	02600e13          	li	t3,38
    60d4:	01d01463          	bne	zero,t4,60dc <fail>
    60d8:	03c01a63          	bne	zero,t3,610c <pass>

000060dc <fail>:
    60dc:	10000537          	lui	a0,0x10000
    60e0:	04500593          	li	a1,69
    60e4:	05200613          	li	a2,82
    60e8:	04f00693          	li	a3,79
    60ec:	00a00713          	li	a4,10
    60f0:	00b52023          	sw	a1,0(a0) # 10000000 <end+0xfff49c0>
    60f4:	00c52023          	sw	a2,0(a0)
    60f8:	00c52023          	sw	a2,0(a0)
    60fc:	00d52023          	sw	a3,0(a0)
    6100:	00c52023          	sw	a2,0(a0)
    6104:	00e52023          	sw	a4,0(a0)
    6108:	00100073          	ebreak

0000610c <pass>:
    610c:	10000537          	lui	a0,0x10000
    6110:	04f00593          	li	a1,79
    6114:	04b00613          	li	a2,75
    6118:	00a00693          	li	a3,10
    611c:	00b52023          	sw	a1,0(a0) # 10000000 <end+0xfff49c0>
    6120:	00c52023          	sw	a2,0(a0)
    6124:	00d52023          	sw	a3,0(a0)
    6128:	000f0113          	mv	sp,t5
    612c:	ffc12183          	lw	gp,-4(sp) # ffff7ffc <end+0xfffec9bc>
    6130:	ff812083          	lw	ra,-8(sp)
    6134:	a2cfa06f          	j	360 <slt_ret>

00006138 <srai>:
    6138:	00010f13          	mv	t5,sp
    613c:	fe312e23          	sw	gp,-4(sp)
    6140:	fe112c23          	sw	ra,-8(sp)
    6144:	0000b537          	lui	a0,0xb
    6148:	42450513          	addi	a0,a0,1060 # b424 <srai_data>
    614c:	10000637          	lui	a2,0x10000

00006150 <.prname_next>:
    6150:	00050583          	lb	a1,0(a0)
    6154:	00058863          	beqz	a1,6164 <.prname_done>
    6158:	00b62023          	sw	a1,0(a2) # 10000000 <end+0xfff49c0>
    615c:	00150513          	addi	a0,a0,1
    6160:	ff1ff06f          	j	6150 <.prname_next>

00006164 <.prname_done>:
    6164:	02e00593          	li	a1,46
    6168:	00b62023          	sw	a1,0(a2)
    616c:	00b62023          	sw	a1,0(a2)

00006170 <test_2>:
    6170:	00000093          	li	ra,0
    6174:	4000d193          	srai	gp,ra,0x0
    6178:	00000e93          	li	t4,0
    617c:	00200e13          	li	t3,2
    6180:	2bd19463          	bne	gp,t4,6428 <fail>

00006184 <test_3>:
    6184:	800000b7          	lui	ra,0x80000
    6188:	4010d193          	srai	gp,ra,0x1
    618c:	c0000eb7          	lui	t4,0xc0000
    6190:	00300e13          	li	t3,3
    6194:	29d19a63          	bne	gp,t4,6428 <fail>

00006198 <test_4>:
    6198:	800000b7          	lui	ra,0x80000
    619c:	4070d193          	srai	gp,ra,0x7
    61a0:	ff000eb7          	lui	t4,0xff000
    61a4:	00400e13          	li	t3,4
    61a8:	29d19063          	bne	gp,t4,6428 <fail>

000061ac <test_5>:
    61ac:	800000b7          	lui	ra,0x80000
    61b0:	40e0d193          	srai	gp,ra,0xe
    61b4:	fffe0eb7          	lui	t4,0xfffe0
    61b8:	00500e13          	li	t3,5
    61bc:	27d19663          	bne	gp,t4,6428 <fail>

000061c0 <test_6>:
    61c0:	800000b7          	lui	ra,0x80000
    61c4:	00108093          	addi	ra,ra,1 # 80000001 <end+0x7fff49c1>
    61c8:	41f0d193          	srai	gp,ra,0x1f
    61cc:	fff00e93          	li	t4,-1
    61d0:	00600e13          	li	t3,6
    61d4:	25d19a63          	bne	gp,t4,6428 <fail>

000061d8 <test_7>:
    61d8:	800000b7          	lui	ra,0x80000
    61dc:	fff08093          	addi	ra,ra,-1 # 7fffffff <end+0x7fff49bf>
    61e0:	4000d193          	srai	gp,ra,0x0
    61e4:	80000eb7          	lui	t4,0x80000
    61e8:	fffe8e93          	addi	t4,t4,-1 # 7fffffff <end+0x7fff49bf>
    61ec:	00700e13          	li	t3,7
    61f0:	23d19c63          	bne	gp,t4,6428 <fail>

000061f4 <test_8>:
    61f4:	800000b7          	lui	ra,0x80000
    61f8:	fff08093          	addi	ra,ra,-1 # 7fffffff <end+0x7fff49bf>
    61fc:	4010d193          	srai	gp,ra,0x1
    6200:	40000eb7          	lui	t4,0x40000
    6204:	fffe8e93          	addi	t4,t4,-1 # 3fffffff <end+0x3fff49bf>
    6208:	00800e13          	li	t3,8
    620c:	21d19e63          	bne	gp,t4,6428 <fail>

00006210 <test_9>:
    6210:	800000b7          	lui	ra,0x80000
    6214:	fff08093          	addi	ra,ra,-1 # 7fffffff <end+0x7fff49bf>
    6218:	4070d193          	srai	gp,ra,0x7
    621c:	01000eb7          	lui	t4,0x1000
    6220:	fffe8e93          	addi	t4,t4,-1 # ffffff <end+0xff49bf>
    6224:	00900e13          	li	t3,9
    6228:	21d19063          	bne	gp,t4,6428 <fail>

0000622c <test_10>:
    622c:	800000b7          	lui	ra,0x80000
    6230:	fff08093          	addi	ra,ra,-1 # 7fffffff <end+0x7fff49bf>
    6234:	40e0d193          	srai	gp,ra,0xe
    6238:	00020eb7          	lui	t4,0x20
    623c:	fffe8e93          	addi	t4,t4,-1 # 1ffff <end+0x149bf>
    6240:	00a00e13          	li	t3,10
    6244:	1fd19263          	bne	gp,t4,6428 <fail>

00006248 <test_11>:
    6248:	800000b7          	lui	ra,0x80000
    624c:	fff08093          	addi	ra,ra,-1 # 7fffffff <end+0x7fff49bf>
    6250:	41f0d193          	srai	gp,ra,0x1f
    6254:	00000e93          	li	t4,0
    6258:	00b00e13          	li	t3,11
    625c:	1dd19663          	bne	gp,t4,6428 <fail>

00006260 <test_12>:
    6260:	818180b7          	lui	ra,0x81818
    6264:	18108093          	addi	ra,ra,385 # 81818181 <end+0x8180cb41>
    6268:	4000d193          	srai	gp,ra,0x0
    626c:	81818eb7          	lui	t4,0x81818
    6270:	181e8e93          	addi	t4,t4,385 # 81818181 <end+0x8180cb41>
    6274:	00c00e13          	li	t3,12
    6278:	1bd19863          	bne	gp,t4,6428 <fail>

0000627c <test_13>:
    627c:	818180b7          	lui	ra,0x81818
    6280:	18108093          	addi	ra,ra,385 # 81818181 <end+0x8180cb41>
    6284:	4010d193          	srai	gp,ra,0x1
    6288:	c0c0ceb7          	lui	t4,0xc0c0c
    628c:	0c0e8e93          	addi	t4,t4,192 # c0c0c0c0 <end+0xc0c00a80>
    6290:	00d00e13          	li	t3,13
    6294:	19d19a63          	bne	gp,t4,6428 <fail>

00006298 <test_14>:
    6298:	818180b7          	lui	ra,0x81818
    629c:	18108093          	addi	ra,ra,385 # 81818181 <end+0x8180cb41>
    62a0:	4070d193          	srai	gp,ra,0x7
    62a4:	ff030eb7          	lui	t4,0xff030
    62a8:	303e8e93          	addi	t4,t4,771 # ff030303 <end+0xff024cc3>
    62ac:	00e00e13          	li	t3,14
    62b0:	17d19c63          	bne	gp,t4,6428 <fail>

000062b4 <test_15>:
    62b4:	818180b7          	lui	ra,0x81818
    62b8:	18108093          	addi	ra,ra,385 # 81818181 <end+0x8180cb41>
    62bc:	40e0d193          	srai	gp,ra,0xe
    62c0:	fffe0eb7          	lui	t4,0xfffe0
    62c4:	606e8e93          	addi	t4,t4,1542 # fffe0606 <end+0xfffd4fc6>
    62c8:	00f00e13          	li	t3,15
    62cc:	15d19e63          	bne	gp,t4,6428 <fail>

000062d0 <test_16>:
    62d0:	818180b7          	lui	ra,0x81818
    62d4:	18108093          	addi	ra,ra,385 # 81818181 <end+0x8180cb41>
    62d8:	41f0d193          	srai	gp,ra,0x1f
    62dc:	fff00e93          	li	t4,-1
    62e0:	01000e13          	li	t3,16
    62e4:	15d19263          	bne	gp,t4,6428 <fail>

000062e8 <test_17>:
    62e8:	800000b7          	lui	ra,0x80000
    62ec:	4070d093          	srai	ra,ra,0x7
    62f0:	ff000eb7          	lui	t4,0xff000
    62f4:	01100e13          	li	t3,17
    62f8:	13d09863          	bne	ra,t4,6428 <fail>

000062fc <test_18>:
    62fc:	00000213          	li	tp,0
    6300:	800000b7          	lui	ra,0x80000
    6304:	4070d193          	srai	gp,ra,0x7
    6308:	00018313          	mv	t1,gp
    630c:	00120213          	addi	tp,tp,1 # 1 <__boot_address-0x17f>
    6310:	00200293          	li	t0,2
    6314:	fe5216e3          	bne	tp,t0,6300 <test_18+0x4>
    6318:	ff000eb7          	lui	t4,0xff000
    631c:	01200e13          	li	t3,18
    6320:	11d31463          	bne	t1,t4,6428 <fail>

00006324 <test_19>:
    6324:	00000213          	li	tp,0
    6328:	800000b7          	lui	ra,0x80000
    632c:	40e0d193          	srai	gp,ra,0xe
    6330:	00000013          	nop
    6334:	00018313          	mv	t1,gp
    6338:	00120213          	addi	tp,tp,1 # 1 <__boot_address-0x17f>
    633c:	00200293          	li	t0,2
    6340:	fe5214e3          	bne	tp,t0,6328 <test_19+0x4>
    6344:	fffe0eb7          	lui	t4,0xfffe0
    6348:	01300e13          	li	t3,19
    634c:	0dd31e63          	bne	t1,t4,6428 <fail>

00006350 <test_20>:
    6350:	00000213          	li	tp,0
    6354:	800000b7          	lui	ra,0x80000
    6358:	00108093          	addi	ra,ra,1 # 80000001 <end+0x7fff49c1>
    635c:	41f0d193          	srai	gp,ra,0x1f
    6360:	00000013          	nop
    6364:	00000013          	nop
    6368:	00018313          	mv	t1,gp
    636c:	00120213          	addi	tp,tp,1 # 1 <__boot_address-0x17f>
    6370:	00200293          	li	t0,2
    6374:	fe5210e3          	bne	tp,t0,6354 <test_20+0x4>
    6378:	fff00e93          	li	t4,-1
    637c:	01400e13          	li	t3,20
    6380:	0bd31463          	bne	t1,t4,6428 <fail>

00006384 <test_21>:
    6384:	00000213          	li	tp,0
    6388:	800000b7          	lui	ra,0x80000
    638c:	4070d193          	srai	gp,ra,0x7
    6390:	00120213          	addi	tp,tp,1 # 1 <__boot_address-0x17f>
    6394:	00200293          	li	t0,2
    6398:	fe5218e3          	bne	tp,t0,6388 <test_21+0x4>
    639c:	ff000eb7          	lui	t4,0xff000
    63a0:	01500e13          	li	t3,21
    63a4:	09d19263          	bne	gp,t4,6428 <fail>

000063a8 <test_22>:
    63a8:	00000213          	li	tp,0
    63ac:	800000b7          	lui	ra,0x80000
    63b0:	00000013          	nop
    63b4:	40e0d193          	srai	gp,ra,0xe
    63b8:	00120213          	addi	tp,tp,1 # 1 <__boot_address-0x17f>
    63bc:	00200293          	li	t0,2
    63c0:	fe5216e3          	bne	tp,t0,63ac <test_22+0x4>
    63c4:	fffe0eb7          	lui	t4,0xfffe0
    63c8:	01600e13          	li	t3,22
    63cc:	05d19e63          	bne	gp,t4,6428 <fail>

000063d0 <test_23>:
    63d0:	00000213          	li	tp,0
    63d4:	800000b7          	lui	ra,0x80000
    63d8:	00108093          	addi	ra,ra,1 # 80000001 <end+0x7fff49c1>
    63dc:	00000013          	nop
    63e0:	00000013          	nop
    63e4:	41f0d193          	srai	gp,ra,0x1f
    63e8:	00120213          	addi	tp,tp,1 # 1 <__boot_address-0x17f>
    63ec:	00200293          	li	t0,2
    63f0:	fe5212e3          	bne	tp,t0,63d4 <test_23+0x4>
    63f4:	fff00e93          	li	t4,-1
    63f8:	01700e13          	li	t3,23
    63fc:	03d19663          	bne	gp,t4,6428 <fail>

00006400 <test_24>:
    6400:	41f05093          	srai	ra,zero,0x1f
    6404:	00000e93          	li	t4,0
    6408:	01800e13          	li	t3,24
    640c:	01d09e63          	bne	ra,t4,6428 <fail>

00006410 <test_25>:
    6410:	02100093          	li	ra,33
    6414:	4140d013          	srai	zero,ra,0x14
    6418:	00000e93          	li	t4,0
    641c:	01900e13          	li	t3,25
    6420:	01d01463          	bne	zero,t4,6428 <fail>
    6424:	03c01a63          	bne	zero,t3,6458 <pass>

00006428 <fail>:
    6428:	10000537          	lui	a0,0x10000
    642c:	04500593          	li	a1,69
    6430:	05200613          	li	a2,82
    6434:	04f00693          	li	a3,79
    6438:	00a00713          	li	a4,10
    643c:	00b52023          	sw	a1,0(a0) # 10000000 <end+0xfff49c0>
    6440:	00c52023          	sw	a2,0(a0)
    6444:	00c52023          	sw	a2,0(a0)
    6448:	00d52023          	sw	a3,0(a0)
    644c:	00c52023          	sw	a2,0(a0)
    6450:	00e52023          	sw	a4,0(a0)
    6454:	00100073          	ebreak

00006458 <pass>:
    6458:	10000537          	lui	a0,0x10000
    645c:	04f00593          	li	a1,79
    6460:	04b00613          	li	a2,75
    6464:	00a00693          	li	a3,10
    6468:	00b52023          	sw	a1,0(a0) # 10000000 <end+0xfff49c0>
    646c:	00c52023          	sw	a2,0(a0)
    6470:	00d52023          	sw	a3,0(a0)
    6474:	000f0113          	mv	sp,t5
    6478:	ffc12183          	lw	gp,-4(sp)
    647c:	ff812083          	lw	ra,-8(sp)
    6480:	ec1f906f          	j	340 <srai_ret>

00006484 <sra>:
    6484:	00010f13          	mv	t5,sp
    6488:	fe312e23          	sw	gp,-4(sp)
    648c:	fe112c23          	sw	ra,-8(sp)
    6490:	0000b537          	lui	a0,0xb
    6494:	44850513          	addi	a0,a0,1096 # b448 <sra_data>
    6498:	10000637          	lui	a2,0x10000

0000649c <.prname_next>:
    649c:	00050583          	lb	a1,0(a0)
    64a0:	00058863          	beqz	a1,64b0 <.prname_done>
    64a4:	00b62023          	sw	a1,0(a2) # 10000000 <end+0xfff49c0>
    64a8:	00150513          	addi	a0,a0,1
    64ac:	ff1ff06f          	j	649c <.prname_next>

000064b0 <.prname_done>:
    64b0:	02e00593          	li	a1,46
    64b4:	00b62023          	sw	a1,0(a2)
    64b8:	00b62023          	sw	a1,0(a2)

000064bc <test_2>:
    64bc:	800000b7          	lui	ra,0x80000
    64c0:	00000113          	li	sp,0
    64c4:	4020d1b3          	sra	gp,ra,sp
    64c8:	80000eb7          	lui	t4,0x80000
    64cc:	00200e13          	li	t3,2
    64d0:	59d19463          	bne	gp,t4,6a58 <fail>

000064d4 <test_3>:
    64d4:	800000b7          	lui	ra,0x80000
    64d8:	00100113          	li	sp,1
    64dc:	4020d1b3          	sra	gp,ra,sp
    64e0:	c0000eb7          	lui	t4,0xc0000
    64e4:	00300e13          	li	t3,3
    64e8:	57d19863          	bne	gp,t4,6a58 <fail>

000064ec <test_4>:
    64ec:	800000b7          	lui	ra,0x80000
    64f0:	00700113          	li	sp,7
    64f4:	4020d1b3          	sra	gp,ra,sp
    64f8:	ff000eb7          	lui	t4,0xff000
    64fc:	00400e13          	li	t3,4
    6500:	55d19c63          	bne	gp,t4,6a58 <fail>

00006504 <test_5>:
    6504:	800000b7          	lui	ra,0x80000
    6508:	00e00113          	li	sp,14
    650c:	4020d1b3          	sra	gp,ra,sp
    6510:	fffe0eb7          	lui	t4,0xfffe0
    6514:	00500e13          	li	t3,5
    6518:	55d19063          	bne	gp,t4,6a58 <fail>

0000651c <test_6>:
    651c:	800000b7          	lui	ra,0x80000
    6520:	00108093          	addi	ra,ra,1 # 80000001 <end+0x7fff49c1>
    6524:	01f00113          	li	sp,31
    6528:	4020d1b3          	sra	gp,ra,sp
    652c:	fff00e93          	li	t4,-1
    6530:	00600e13          	li	t3,6
    6534:	53d19263          	bne	gp,t4,6a58 <fail>

00006538 <test_7>:
    6538:	800000b7          	lui	ra,0x80000
    653c:	fff08093          	addi	ra,ra,-1 # 7fffffff <end+0x7fff49bf>
    6540:	00000113          	li	sp,0
    6544:	4020d1b3          	sra	gp,ra,sp
    6548:	80000eb7          	lui	t4,0x80000
    654c:	fffe8e93          	addi	t4,t4,-1 # 7fffffff <end+0x7fff49bf>
    6550:	00700e13          	li	t3,7
    6554:	51d19263          	bne	gp,t4,6a58 <fail>

00006558 <test_8>:
    6558:	800000b7          	lui	ra,0x80000
    655c:	fff08093          	addi	ra,ra,-1 # 7fffffff <end+0x7fff49bf>
    6560:	00100113          	li	sp,1
    6564:	4020d1b3          	sra	gp,ra,sp
    6568:	40000eb7          	lui	t4,0x40000
    656c:	fffe8e93          	addi	t4,t4,-1 # 3fffffff <end+0x3fff49bf>
    6570:	00800e13          	li	t3,8
    6574:	4fd19263          	bne	gp,t4,6a58 <fail>

00006578 <test_9>:
    6578:	800000b7          	lui	ra,0x80000
    657c:	fff08093          	addi	ra,ra,-1 # 7fffffff <end+0x7fff49bf>
    6580:	00700113          	li	sp,7
    6584:	4020d1b3          	sra	gp,ra,sp
    6588:	01000eb7          	lui	t4,0x1000
    658c:	fffe8e93          	addi	t4,t4,-1 # ffffff <end+0xff49bf>
    6590:	00900e13          	li	t3,9
    6594:	4dd19263          	bne	gp,t4,6a58 <fail>

00006598 <test_10>:
    6598:	800000b7          	lui	ra,0x80000
    659c:	fff08093          	addi	ra,ra,-1 # 7fffffff <end+0x7fff49bf>
    65a0:	00e00113          	li	sp,14
    65a4:	4020d1b3          	sra	gp,ra,sp
    65a8:	00020eb7          	lui	t4,0x20
    65ac:	fffe8e93          	addi	t4,t4,-1 # 1ffff <end+0x149bf>
    65b0:	00a00e13          	li	t3,10
    65b4:	4bd19263          	bne	gp,t4,6a58 <fail>

000065b8 <test_11>:
    65b8:	800000b7          	lui	ra,0x80000
    65bc:	fff08093          	addi	ra,ra,-1 # 7fffffff <end+0x7fff49bf>
    65c0:	01f00113          	li	sp,31
    65c4:	4020d1b3          	sra	gp,ra,sp
    65c8:	00000e93          	li	t4,0
    65cc:	00b00e13          	li	t3,11
    65d0:	49d19463          	bne	gp,t4,6a58 <fail>

000065d4 <test_12>:
    65d4:	818180b7          	lui	ra,0x81818
    65d8:	18108093          	addi	ra,ra,385 # 81818181 <end+0x8180cb41>
    65dc:	00000113          	li	sp,0
    65e0:	4020d1b3          	sra	gp,ra,sp
    65e4:	81818eb7          	lui	t4,0x81818
    65e8:	181e8e93          	addi	t4,t4,385 # 81818181 <end+0x8180cb41>
    65ec:	00c00e13          	li	t3,12
    65f0:	47d19463          	bne	gp,t4,6a58 <fail>

000065f4 <test_13>:
    65f4:	818180b7          	lui	ra,0x81818
    65f8:	18108093          	addi	ra,ra,385 # 81818181 <end+0x8180cb41>
    65fc:	00100113          	li	sp,1
    6600:	4020d1b3          	sra	gp,ra,sp
    6604:	c0c0ceb7          	lui	t4,0xc0c0c
    6608:	0c0e8e93          	addi	t4,t4,192 # c0c0c0c0 <end+0xc0c00a80>
    660c:	00d00e13          	li	t3,13
    6610:	45d19463          	bne	gp,t4,6a58 <fail>

00006614 <test_14>:
    6614:	818180b7          	lui	ra,0x81818
    6618:	18108093          	addi	ra,ra,385 # 81818181 <end+0x8180cb41>
    661c:	00700113          	li	sp,7
    6620:	4020d1b3          	sra	gp,ra,sp
    6624:	ff030eb7          	lui	t4,0xff030
    6628:	303e8e93          	addi	t4,t4,771 # ff030303 <end+0xff024cc3>
    662c:	00e00e13          	li	t3,14
    6630:	43d19463          	bne	gp,t4,6a58 <fail>

00006634 <test_15>:
    6634:	818180b7          	lui	ra,0x81818
    6638:	18108093          	addi	ra,ra,385 # 81818181 <end+0x8180cb41>
    663c:	00e00113          	li	sp,14
    6640:	4020d1b3          	sra	gp,ra,sp
    6644:	fffe0eb7          	lui	t4,0xfffe0
    6648:	606e8e93          	addi	t4,t4,1542 # fffe0606 <end+0xfffd4fc6>
    664c:	00f00e13          	li	t3,15
    6650:	41d19463          	bne	gp,t4,6a58 <fail>

00006654 <test_16>:
    6654:	818180b7          	lui	ra,0x81818
    6658:	18108093          	addi	ra,ra,385 # 81818181 <end+0x8180cb41>
    665c:	01f00113          	li	sp,31
    6660:	4020d1b3          	sra	gp,ra,sp
    6664:	fff00e93          	li	t4,-1
    6668:	01000e13          	li	t3,16
    666c:	3fd19663          	bne	gp,t4,6a58 <fail>

00006670 <test_17>:
    6670:	818180b7          	lui	ra,0x81818
    6674:	18108093          	addi	ra,ra,385 # 81818181 <end+0x8180cb41>
    6678:	fc000113          	li	sp,-64
    667c:	4020d1b3          	sra	gp,ra,sp
    6680:	81818eb7          	lui	t4,0x81818
    6684:	181e8e93          	addi	t4,t4,385 # 81818181 <end+0x8180cb41>
    6688:	01100e13          	li	t3,17
    668c:	3dd19663          	bne	gp,t4,6a58 <fail>

00006690 <test_18>:
    6690:	818180b7          	lui	ra,0x81818
    6694:	18108093          	addi	ra,ra,385 # 81818181 <end+0x8180cb41>
    6698:	fc100113          	li	sp,-63
    669c:	4020d1b3          	sra	gp,ra,sp
    66a0:	c0c0ceb7          	lui	t4,0xc0c0c
    66a4:	0c0e8e93          	addi	t4,t4,192 # c0c0c0c0 <end+0xc0c00a80>
    66a8:	01200e13          	li	t3,18
    66ac:	3bd19663          	bne	gp,t4,6a58 <fail>

000066b0 <test_19>:
    66b0:	818180b7          	lui	ra,0x81818
    66b4:	18108093          	addi	ra,ra,385 # 81818181 <end+0x8180cb41>
    66b8:	fc700113          	li	sp,-57
    66bc:	4020d1b3          	sra	gp,ra,sp
    66c0:	ff030eb7          	lui	t4,0xff030
    66c4:	303e8e93          	addi	t4,t4,771 # ff030303 <end+0xff024cc3>
    66c8:	01300e13          	li	t3,19
    66cc:	39d19663          	bne	gp,t4,6a58 <fail>

000066d0 <test_20>:
    66d0:	818180b7          	lui	ra,0x81818
    66d4:	18108093          	addi	ra,ra,385 # 81818181 <end+0x8180cb41>
    66d8:	fce00113          	li	sp,-50
    66dc:	4020d1b3          	sra	gp,ra,sp
    66e0:	fffe0eb7          	lui	t4,0xfffe0
    66e4:	606e8e93          	addi	t4,t4,1542 # fffe0606 <end+0xfffd4fc6>
    66e8:	01400e13          	li	t3,20
    66ec:	37d19663          	bne	gp,t4,6a58 <fail>

000066f0 <test_21>:
    66f0:	818180b7          	lui	ra,0x81818
    66f4:	18108093          	addi	ra,ra,385 # 81818181 <end+0x8180cb41>
    66f8:	fff00113          	li	sp,-1
    66fc:	4020d1b3          	sra	gp,ra,sp
    6700:	fff00e93          	li	t4,-1
    6704:	01500e13          	li	t3,21
    6708:	35d19863          	bne	gp,t4,6a58 <fail>

0000670c <test_22>:
    670c:	800000b7          	lui	ra,0x80000
    6710:	00700113          	li	sp,7
    6714:	4020d0b3          	sra	ra,ra,sp
    6718:	ff000eb7          	lui	t4,0xff000
    671c:	01600e13          	li	t3,22
    6720:	33d09c63          	bne	ra,t4,6a58 <fail>

00006724 <test_23>:
    6724:	800000b7          	lui	ra,0x80000
    6728:	00e00113          	li	sp,14
    672c:	4020d133          	sra	sp,ra,sp
    6730:	fffe0eb7          	lui	t4,0xfffe0
    6734:	01700e13          	li	t3,23
    6738:	33d11063          	bne	sp,t4,6a58 <fail>

0000673c <test_24>:
    673c:	00700093          	li	ra,7
    6740:	4010d0b3          	sra	ra,ra,ra
    6744:	00000e93          	li	t4,0
    6748:	01800e13          	li	t3,24
    674c:	31d09663          	bne	ra,t4,6a58 <fail>

00006750 <test_25>:
    6750:	00000213          	li	tp,0
    6754:	800000b7          	lui	ra,0x80000
    6758:	00700113          	li	sp,7
    675c:	4020d1b3          	sra	gp,ra,sp
    6760:	00018313          	mv	t1,gp
    6764:	00120213          	addi	tp,tp,1 # 1 <__boot_address-0x17f>
    6768:	00200293          	li	t0,2
    676c:	fe5214e3          	bne	tp,t0,6754 <test_25+0x4>
    6770:	ff000eb7          	lui	t4,0xff000
    6774:	01900e13          	li	t3,25
    6778:	2fd31063          	bne	t1,t4,6a58 <fail>

0000677c <test_26>:
    677c:	00000213          	li	tp,0
    6780:	800000b7          	lui	ra,0x80000
    6784:	00e00113          	li	sp,14
    6788:	4020d1b3          	sra	gp,ra,sp
    678c:	00000013          	nop
    6790:	00018313          	mv	t1,gp
    6794:	00120213          	addi	tp,tp,1 # 1 <__boot_address-0x17f>
    6798:	00200293          	li	t0,2
    679c:	fe5212e3          	bne	tp,t0,6780 <test_26+0x4>
    67a0:	fffe0eb7          	lui	t4,0xfffe0
    67a4:	01a00e13          	li	t3,26
    67a8:	2bd31863          	bne	t1,t4,6a58 <fail>

000067ac <test_27>:
    67ac:	00000213          	li	tp,0
    67b0:	800000b7          	lui	ra,0x80000
    67b4:	01f00113          	li	sp,31
    67b8:	4020d1b3          	sra	gp,ra,sp
    67bc:	00000013          	nop
    67c0:	00000013          	nop
    67c4:	00018313          	mv	t1,gp
    67c8:	00120213          	addi	tp,tp,1 # 1 <__boot_address-0x17f>
    67cc:	00200293          	li	t0,2
    67d0:	fe5210e3          	bne	tp,t0,67b0 <test_27+0x4>
    67d4:	fff00e93          	li	t4,-1
    67d8:	01b00e13          	li	t3,27
    67dc:	27d31e63          	bne	t1,t4,6a58 <fail>

000067e0 <test_28>:
    67e0:	00000213          	li	tp,0
    67e4:	800000b7          	lui	ra,0x80000
    67e8:	00700113          	li	sp,7
    67ec:	4020d1b3          	sra	gp,ra,sp
    67f0:	00120213          	addi	tp,tp,1 # 1 <__boot_address-0x17f>
    67f4:	00200293          	li	t0,2
    67f8:	fe5216e3          	bne	tp,t0,67e4 <test_28+0x4>
    67fc:	ff000eb7          	lui	t4,0xff000
    6800:	01c00e13          	li	t3,28
    6804:	25d19a63          	bne	gp,t4,6a58 <fail>

00006808 <test_29>:
    6808:	00000213          	li	tp,0
    680c:	800000b7          	lui	ra,0x80000
    6810:	00e00113          	li	sp,14
    6814:	00000013          	nop
    6818:	4020d1b3          	sra	gp,ra,sp
    681c:	00120213          	addi	tp,tp,1 # 1 <__boot_address-0x17f>
    6820:	00200293          	li	t0,2
    6824:	fe5214e3          	bne	tp,t0,680c <test_29+0x4>
    6828:	fffe0eb7          	lui	t4,0xfffe0
    682c:	01d00e13          	li	t3,29
    6830:	23d19463          	bne	gp,t4,6a58 <fail>

00006834 <test_30>:
    6834:	00000213          	li	tp,0
    6838:	800000b7          	lui	ra,0x80000
    683c:	01f00113          	li	sp,31
    6840:	00000013          	nop
    6844:	00000013          	nop
    6848:	4020d1b3          	sra	gp,ra,sp
    684c:	00120213          	addi	tp,tp,1 # 1 <__boot_address-0x17f>
    6850:	00200293          	li	t0,2
    6854:	fe5212e3          	bne	tp,t0,6838 <test_30+0x4>
    6858:	fff00e93          	li	t4,-1
    685c:	01e00e13          	li	t3,30
    6860:	1fd19c63          	bne	gp,t4,6a58 <fail>

00006864 <test_31>:
    6864:	00000213          	li	tp,0
    6868:	800000b7          	lui	ra,0x80000
    686c:	00000013          	nop
    6870:	00700113          	li	sp,7
    6874:	4020d1b3          	sra	gp,ra,sp
    6878:	00120213          	addi	tp,tp,1 # 1 <__boot_address-0x17f>
    687c:	00200293          	li	t0,2
    6880:	fe5214e3          	bne	tp,t0,6868 <test_31+0x4>
    6884:	ff000eb7          	lui	t4,0xff000
    6888:	01f00e13          	li	t3,31
    688c:	1dd19663          	bne	gp,t4,6a58 <fail>

00006890 <test_32>:
    6890:	00000213          	li	tp,0
    6894:	800000b7          	lui	ra,0x80000
    6898:	00000013          	nop
    689c:	00e00113          	li	sp,14
    68a0:	00000013          	nop
    68a4:	4020d1b3          	sra	gp,ra,sp
    68a8:	00120213          	addi	tp,tp,1 # 1 <__boot_address-0x17f>
    68ac:	00200293          	li	t0,2
    68b0:	fe5212e3          	bne	tp,t0,6894 <test_32+0x4>
    68b4:	fffe0eb7          	lui	t4,0xfffe0
    68b8:	02000e13          	li	t3,32
    68bc:	19d19e63          	bne	gp,t4,6a58 <fail>

000068c0 <test_33>:
    68c0:	00000213          	li	tp,0
    68c4:	800000b7          	lui	ra,0x80000
    68c8:	00000013          	nop
    68cc:	00000013          	nop
    68d0:	01f00113          	li	sp,31
    68d4:	4020d1b3          	sra	gp,ra,sp
    68d8:	00120213          	addi	tp,tp,1 # 1 <__boot_address-0x17f>
    68dc:	00200293          	li	t0,2
    68e0:	fe5212e3          	bne	tp,t0,68c4 <test_33+0x4>
    68e4:	fff00e93          	li	t4,-1
    68e8:	02100e13          	li	t3,33
    68ec:	17d19663          	bne	gp,t4,6a58 <fail>

000068f0 <test_34>:
    68f0:	00000213          	li	tp,0
    68f4:	00700113          	li	sp,7
    68f8:	800000b7          	lui	ra,0x80000
    68fc:	4020d1b3          	sra	gp,ra,sp
    6900:	00120213          	addi	tp,tp,1 # 1 <__boot_address-0x17f>
    6904:	00200293          	li	t0,2
    6908:	fe5216e3          	bne	tp,t0,68f4 <test_34+0x4>
    690c:	ff000eb7          	lui	t4,0xff000
    6910:	02200e13          	li	t3,34
    6914:	15d19263          	bne	gp,t4,6a58 <fail>

00006918 <test_35>:
    6918:	00000213          	li	tp,0
    691c:	00e00113          	li	sp,14
    6920:	800000b7          	lui	ra,0x80000
    6924:	00000013          	nop
    6928:	4020d1b3          	sra	gp,ra,sp
    692c:	00120213          	addi	tp,tp,1 # 1 <__boot_address-0x17f>
    6930:	00200293          	li	t0,2
    6934:	fe5214e3          	bne	tp,t0,691c <test_35+0x4>
    6938:	fffe0eb7          	lui	t4,0xfffe0
    693c:	02300e13          	li	t3,35
    6940:	11d19c63          	bne	gp,t4,6a58 <fail>

00006944 <test_36>:
    6944:	00000213          	li	tp,0
    6948:	01f00113          	li	sp,31
    694c:	800000b7          	lui	ra,0x80000
    6950:	00000013          	nop
    6954:	00000013          	nop
    6958:	4020d1b3          	sra	gp,ra,sp
    695c:	00120213          	addi	tp,tp,1 # 1 <__boot_address-0x17f>
    6960:	00200293          	li	t0,2
    6964:	fe5212e3          	bne	tp,t0,6948 <test_36+0x4>
    6968:	fff00e93          	li	t4,-1
    696c:	02400e13          	li	t3,36
    6970:	0fd19463          	bne	gp,t4,6a58 <fail>

00006974 <test_37>:
    6974:	00000213          	li	tp,0
    6978:	00700113          	li	sp,7
    697c:	00000013          	nop
    6980:	800000b7          	lui	ra,0x80000
    6984:	4020d1b3          	sra	gp,ra,sp
    6988:	00120213          	addi	tp,tp,1 # 1 <__boot_address-0x17f>
    698c:	00200293          	li	t0,2
    6990:	fe5214e3          	bne	tp,t0,6978 <test_37+0x4>
    6994:	ff000eb7          	lui	t4,0xff000
    6998:	02500e13          	li	t3,37
    699c:	0bd19e63          	bne	gp,t4,6a58 <fail>

000069a0 <test_38>:
    69a0:	00000213          	li	tp,0
    69a4:	00e00113          	li	sp,14
    69a8:	00000013          	nop
    69ac:	800000b7          	lui	ra,0x80000
    69b0:	00000013          	nop
    69b4:	4020d1b3          	sra	gp,ra,sp
    69b8:	00120213          	addi	tp,tp,1 # 1 <__boot_address-0x17f>
    69bc:	00200293          	li	t0,2
    69c0:	fe5212e3          	bne	tp,t0,69a4 <test_38+0x4>
    69c4:	fffe0eb7          	lui	t4,0xfffe0
    69c8:	02600e13          	li	t3,38
    69cc:	09d19663          	bne	gp,t4,6a58 <fail>

000069d0 <test_39>:
    69d0:	00000213          	li	tp,0
    69d4:	01f00113          	li	sp,31
    69d8:	00000013          	nop
    69dc:	00000013          	nop
    69e0:	800000b7          	lui	ra,0x80000
    69e4:	4020d1b3          	sra	gp,ra,sp
    69e8:	00120213          	addi	tp,tp,1 # 1 <__boot_address-0x17f>
    69ec:	00200293          	li	t0,2
    69f0:	fe5212e3          	bne	tp,t0,69d4 <test_39+0x4>
    69f4:	fff00e93          	li	t4,-1
    69f8:	02700e13          	li	t3,39
    69fc:	05d19e63          	bne	gp,t4,6a58 <fail>

00006a00 <test_40>:
    6a00:	00f00093          	li	ra,15
    6a04:	40105133          	sra	sp,zero,ra
    6a08:	00000e93          	li	t4,0
    6a0c:	02800e13          	li	t3,40
    6a10:	05d11463          	bne	sp,t4,6a58 <fail>

00006a14 <test_41>:
    6a14:	02000093          	li	ra,32
    6a18:	4000d133          	sra	sp,ra,zero
    6a1c:	02000e93          	li	t4,32
    6a20:	02900e13          	li	t3,41
    6a24:	03d11a63          	bne	sp,t4,6a58 <fail>

00006a28 <test_42>:
    6a28:	400050b3          	sra	ra,zero,zero
    6a2c:	00000e93          	li	t4,0
    6a30:	02a00e13          	li	t3,42
    6a34:	03d09263          	bne	ra,t4,6a58 <fail>

00006a38 <test_43>:
    6a38:	40000093          	li	ra,1024
    6a3c:	00001137          	lui	sp,0x1
    6a40:	80010113          	addi	sp,sp,-2048 # 800 <test_2+0x14>
    6a44:	4020d033          	sra	zero,ra,sp
    6a48:	00000e93          	li	t4,0
    6a4c:	02b00e13          	li	t3,43
    6a50:	01d01463          	bne	zero,t4,6a58 <fail>
    6a54:	03c01a63          	bne	zero,t3,6a88 <pass>

00006a58 <fail>:
    6a58:	10000537          	lui	a0,0x10000
    6a5c:	04500593          	li	a1,69
    6a60:	05200613          	li	a2,82
    6a64:	04f00693          	li	a3,79
    6a68:	00a00713          	li	a4,10
    6a6c:	00b52023          	sw	a1,0(a0) # 10000000 <end+0xfff49c0>
    6a70:	00c52023          	sw	a2,0(a0)
    6a74:	00c52023          	sw	a2,0(a0)
    6a78:	00d52023          	sw	a3,0(a0)
    6a7c:	00c52023          	sw	a2,0(a0)
    6a80:	00e52023          	sw	a4,0(a0)
    6a84:	00100073          	ebreak

00006a88 <pass>:
    6a88:	10000537          	lui	a0,0x10000
    6a8c:	04f00593          	li	a1,79
    6a90:	04b00613          	li	a2,75
    6a94:	00a00693          	li	a3,10
    6a98:	00b52023          	sw	a1,0(a0) # 10000000 <end+0xfff49c0>
    6a9c:	00c52023          	sw	a2,0(a0)
    6aa0:	00d52023          	sw	a3,0(a0)
    6aa4:	000f0113          	mv	sp,t5
    6aa8:	ffc12183          	lw	gp,-4(sp)
    6aac:	ff812083          	lw	ra,-8(sp)
    6ab0:	8c9f906f          	j	378 <sra_ret>

00006ab4 <srli>:
    6ab4:	00010f13          	mv	t5,sp
    6ab8:	fe312e23          	sw	gp,-4(sp)
    6abc:	fe112c23          	sw	ra,-8(sp)
    6ac0:	0000b537          	lui	a0,0xb
    6ac4:	46850513          	addi	a0,a0,1128 # b468 <srli_data>
    6ac8:	10000637          	lui	a2,0x10000

00006acc <.prname_next>:
    6acc:	00050583          	lb	a1,0(a0)
    6ad0:	00058863          	beqz	a1,6ae0 <.prname_done>
    6ad4:	00b62023          	sw	a1,0(a2) # 10000000 <end+0xfff49c0>
    6ad8:	00150513          	addi	a0,a0,1
    6adc:	ff1ff06f          	j	6acc <.prname_next>

00006ae0 <.prname_done>:
    6ae0:	02e00593          	li	a1,46
    6ae4:	00b62023          	sw	a1,0(a2)
    6ae8:	00b62023          	sw	a1,0(a2)

00006aec <test_2>:
    6aec:	ffff80b7          	lui	ra,0xffff8
    6af0:	0000d193          	srli	gp,ra,0x0
    6af4:	ffff8eb7          	lui	t4,0xffff8
    6af8:	00200e13          	li	t3,2
    6afc:	2bd19263          	bne	gp,t4,6da0 <fail>

00006b00 <test_3>:
    6b00:	ffff80b7          	lui	ra,0xffff8
    6b04:	0010d193          	srli	gp,ra,0x1
    6b08:	7fffceb7          	lui	t4,0x7fffc
    6b0c:	00300e13          	li	t3,3
    6b10:	29d19863          	bne	gp,t4,6da0 <fail>

00006b14 <test_4>:
    6b14:	ffff80b7          	lui	ra,0xffff8
    6b18:	0070d193          	srli	gp,ra,0x7
    6b1c:	02000eb7          	lui	t4,0x2000
    6b20:	f00e8e93          	addi	t4,t4,-256 # 1ffff00 <end+0x1ff48c0>
    6b24:	00400e13          	li	t3,4
    6b28:	27d19c63          	bne	gp,t4,6da0 <fail>

00006b2c <test_5>:
    6b2c:	ffff80b7          	lui	ra,0xffff8
    6b30:	00e0d193          	srli	gp,ra,0xe
    6b34:	00040eb7          	lui	t4,0x40
    6b38:	ffee8e93          	addi	t4,t4,-2 # 3fffe <end+0x349be>
    6b3c:	00500e13          	li	t3,5
    6b40:	27d19063          	bne	gp,t4,6da0 <fail>

00006b44 <test_6>:
    6b44:	ffff80b7          	lui	ra,0xffff8
    6b48:	00108093          	addi	ra,ra,1 # ffff8001 <end+0xfffec9c1>
    6b4c:	00f0d193          	srli	gp,ra,0xf
    6b50:	00020eb7          	lui	t4,0x20
    6b54:	fffe8e93          	addi	t4,t4,-1 # 1ffff <end+0x149bf>
    6b58:	00600e13          	li	t3,6
    6b5c:	25d19263          	bne	gp,t4,6da0 <fail>

00006b60 <test_7>:
    6b60:	fff00093          	li	ra,-1
    6b64:	0000d193          	srli	gp,ra,0x0
    6b68:	fff00e93          	li	t4,-1
    6b6c:	00700e13          	li	t3,7
    6b70:	23d19863          	bne	gp,t4,6da0 <fail>

00006b74 <test_8>:
    6b74:	fff00093          	li	ra,-1
    6b78:	0010d193          	srli	gp,ra,0x1
    6b7c:	80000eb7          	lui	t4,0x80000
    6b80:	fffe8e93          	addi	t4,t4,-1 # 7fffffff <end+0x7fff49bf>
    6b84:	00800e13          	li	t3,8
    6b88:	21d19c63          	bne	gp,t4,6da0 <fail>

00006b8c <test_9>:
    6b8c:	fff00093          	li	ra,-1
    6b90:	0070d193          	srli	gp,ra,0x7
    6b94:	02000eb7          	lui	t4,0x2000
    6b98:	fffe8e93          	addi	t4,t4,-1 # 1ffffff <end+0x1ff49bf>
    6b9c:	00900e13          	li	t3,9
    6ba0:	21d19063          	bne	gp,t4,6da0 <fail>

00006ba4 <test_10>:
    6ba4:	fff00093          	li	ra,-1
    6ba8:	00e0d193          	srli	gp,ra,0xe
    6bac:	00040eb7          	lui	t4,0x40
    6bb0:	fffe8e93          	addi	t4,t4,-1 # 3ffff <end+0x349bf>
    6bb4:	00a00e13          	li	t3,10
    6bb8:	1fd19463          	bne	gp,t4,6da0 <fail>

00006bbc <test_11>:
    6bbc:	fff00093          	li	ra,-1
    6bc0:	01f0d193          	srli	gp,ra,0x1f
    6bc4:	00100e93          	li	t4,1
    6bc8:	00b00e13          	li	t3,11
    6bcc:	1dd19a63          	bne	gp,t4,6da0 <fail>

00006bd0 <test_12>:
    6bd0:	212120b7          	lui	ra,0x21212
    6bd4:	12108093          	addi	ra,ra,289 # 21212121 <end+0x21206ae1>
    6bd8:	0000d193          	srli	gp,ra,0x0
    6bdc:	21212eb7          	lui	t4,0x21212
    6be0:	121e8e93          	addi	t4,t4,289 # 21212121 <end+0x21206ae1>
    6be4:	00c00e13          	li	t3,12
    6be8:	1bd19c63          	bne	gp,t4,6da0 <fail>

00006bec <test_13>:
    6bec:	212120b7          	lui	ra,0x21212
    6bf0:	12108093          	addi	ra,ra,289 # 21212121 <end+0x21206ae1>
    6bf4:	0010d193          	srli	gp,ra,0x1
    6bf8:	10909eb7          	lui	t4,0x10909
    6bfc:	090e8e93          	addi	t4,t4,144 # 10909090 <end+0x108fda50>
    6c00:	00d00e13          	li	t3,13
    6c04:	19d19e63          	bne	gp,t4,6da0 <fail>

00006c08 <test_14>:
    6c08:	212120b7          	lui	ra,0x21212
    6c0c:	12108093          	addi	ra,ra,289 # 21212121 <end+0x21206ae1>
    6c10:	0070d193          	srli	gp,ra,0x7
    6c14:	00424eb7          	lui	t4,0x424
    6c18:	242e8e93          	addi	t4,t4,578 # 424242 <end+0x418c02>
    6c1c:	00e00e13          	li	t3,14
    6c20:	19d19063          	bne	gp,t4,6da0 <fail>

00006c24 <test_15>:
    6c24:	212120b7          	lui	ra,0x21212
    6c28:	12108093          	addi	ra,ra,289 # 21212121 <end+0x21206ae1>
    6c2c:	00e0d193          	srli	gp,ra,0xe
    6c30:	00008eb7          	lui	t4,0x8
    6c34:	484e8e93          	addi	t4,t4,1156 # 8484 <test_18+0x20>
    6c38:	00f00e13          	li	t3,15
    6c3c:	17d19263          	bne	gp,t4,6da0 <fail>

00006c40 <test_16>:
    6c40:	212120b7          	lui	ra,0x21212
    6c44:	12108093          	addi	ra,ra,289 # 21212121 <end+0x21206ae1>
    6c48:	01f0d193          	srli	gp,ra,0x1f
    6c4c:	00000e93          	li	t4,0
    6c50:	01000e13          	li	t3,16
    6c54:	15d19663          	bne	gp,t4,6da0 <fail>

00006c58 <test_21>:
    6c58:	ffff80b7          	lui	ra,0xffff8
    6c5c:	0010d093          	srli	ra,ra,0x1
    6c60:	7fffceb7          	lui	t4,0x7fffc
    6c64:	01500e13          	li	t3,21
    6c68:	13d09c63          	bne	ra,t4,6da0 <fail>

00006c6c <test_22>:
    6c6c:	00000213          	li	tp,0
    6c70:	ffff80b7          	lui	ra,0xffff8
    6c74:	0010d193          	srli	gp,ra,0x1
    6c78:	00018313          	mv	t1,gp
    6c7c:	00120213          	addi	tp,tp,1 # 1 <__boot_address-0x17f>
    6c80:	00200293          	li	t0,2
    6c84:	fe5216e3          	bne	tp,t0,6c70 <test_22+0x4>
    6c88:	7fffceb7          	lui	t4,0x7fffc
    6c8c:	01600e13          	li	t3,22
    6c90:	11d31863          	bne	t1,t4,6da0 <fail>

00006c94 <test_23>:
    6c94:	00000213          	li	tp,0
    6c98:	ffff80b7          	lui	ra,0xffff8
    6c9c:	00e0d193          	srli	gp,ra,0xe
    6ca0:	00000013          	nop
    6ca4:	00018313          	mv	t1,gp
    6ca8:	00120213          	addi	tp,tp,1 # 1 <__boot_address-0x17f>
    6cac:	00200293          	li	t0,2
    6cb0:	fe5214e3          	bne	tp,t0,6c98 <test_23+0x4>
    6cb4:	00040eb7          	lui	t4,0x40
    6cb8:	ffee8e93          	addi	t4,t4,-2 # 3fffe <end+0x349be>
    6cbc:	01700e13          	li	t3,23
    6cc0:	0fd31063          	bne	t1,t4,6da0 <fail>

00006cc4 <test_24>:
    6cc4:	00000213          	li	tp,0
    6cc8:	ffff80b7          	lui	ra,0xffff8
    6ccc:	00f0d193          	srli	gp,ra,0xf
    6cd0:	00000013          	nop
    6cd4:	00000013          	nop
    6cd8:	00018313          	mv	t1,gp
    6cdc:	00120213          	addi	tp,tp,1 # 1 <__boot_address-0x17f>
    6ce0:	00200293          	li	t0,2
    6ce4:	fe5212e3          	bne	tp,t0,6cc8 <test_24+0x4>
    6ce8:	00020eb7          	lui	t4,0x20
    6cec:	fffe8e93          	addi	t4,t4,-1 # 1ffff <end+0x149bf>
    6cf0:	01800e13          	li	t3,24
    6cf4:	0bd31663          	bne	t1,t4,6da0 <fail>

00006cf8 <test_25>:
    6cf8:	00000213          	li	tp,0
    6cfc:	ffff80b7          	lui	ra,0xffff8
    6d00:	0010d193          	srli	gp,ra,0x1
    6d04:	00120213          	addi	tp,tp,1 # 1 <__boot_address-0x17f>
    6d08:	00200293          	li	t0,2
    6d0c:	fe5218e3          	bne	tp,t0,6cfc <test_25+0x4>
    6d10:	7fffceb7          	lui	t4,0x7fffc
    6d14:	01900e13          	li	t3,25
    6d18:	09d19463          	bne	gp,t4,6da0 <fail>

00006d1c <test_26>:
    6d1c:	00000213          	li	tp,0
    6d20:	ffff80b7          	lui	ra,0xffff8
    6d24:	00000013          	nop
    6d28:	00e0d193          	srli	gp,ra,0xe
    6d2c:	00120213          	addi	tp,tp,1 # 1 <__boot_address-0x17f>
    6d30:	00200293          	li	t0,2
    6d34:	fe5216e3          	bne	tp,t0,6d20 <test_26+0x4>
    6d38:	00040eb7          	lui	t4,0x40
    6d3c:	ffee8e93          	addi	t4,t4,-2 # 3fffe <end+0x349be>
    6d40:	01a00e13          	li	t3,26
    6d44:	05d19e63          	bne	gp,t4,6da0 <fail>

00006d48 <test_27>:
    6d48:	00000213          	li	tp,0
    6d4c:	ffff80b7          	lui	ra,0xffff8
    6d50:	00000013          	nop
    6d54:	00000013          	nop
    6d58:	00f0d193          	srli	gp,ra,0xf
    6d5c:	00120213          	addi	tp,tp,1 # 1 <__boot_address-0x17f>
    6d60:	00200293          	li	t0,2
    6d64:	fe5214e3          	bne	tp,t0,6d4c <test_27+0x4>
    6d68:	00020eb7          	lui	t4,0x20
    6d6c:	fffe8e93          	addi	t4,t4,-1 # 1ffff <end+0x149bf>
    6d70:	01b00e13          	li	t3,27
    6d74:	03d19663          	bne	gp,t4,6da0 <fail>

00006d78 <test_28>:
    6d78:	01f05093          	srli	ra,zero,0x1f
    6d7c:	00000e93          	li	t4,0
    6d80:	01c00e13          	li	t3,28
    6d84:	01d09e63          	bne	ra,t4,6da0 <fail>

00006d88 <test_29>:
    6d88:	02100093          	li	ra,33
    6d8c:	0140d013          	srli	zero,ra,0x14
    6d90:	00000e93          	li	t4,0
    6d94:	01d00e13          	li	t3,29
    6d98:	01d01463          	bne	zero,t4,6da0 <fail>
    6d9c:	03c01a63          	bne	zero,t3,6dd0 <pass>

00006da0 <fail>:
    6da0:	10000537          	lui	a0,0x10000
    6da4:	04500593          	li	a1,69
    6da8:	05200613          	li	a2,82
    6dac:	04f00693          	li	a3,79
    6db0:	00a00713          	li	a4,10
    6db4:	00b52023          	sw	a1,0(a0) # 10000000 <end+0xfff49c0>
    6db8:	00c52023          	sw	a2,0(a0)
    6dbc:	00c52023          	sw	a2,0(a0)
    6dc0:	00d52023          	sw	a3,0(a0)
    6dc4:	00c52023          	sw	a2,0(a0)
    6dc8:	00e52023          	sw	a4,0(a0)
    6dcc:	00100073          	ebreak

00006dd0 <pass>:
    6dd0:	10000537          	lui	a0,0x10000
    6dd4:	04f00593          	li	a1,79
    6dd8:	04b00613          	li	a2,75
    6ddc:	00a00693          	li	a3,10
    6de0:	00b52023          	sw	a1,0(a0) # 10000000 <end+0xfff49c0>
    6de4:	00c52023          	sw	a2,0(a0)
    6de8:	00d52023          	sw	a3,0(a0)
    6dec:	000f0113          	mv	sp,t5
    6df0:	ffc12183          	lw	gp,-4(sp)
    6df4:	ff812083          	lw	ra,-8(sp)
    6df8:	d40f906f          	j	338 <srli_ret>

00006dfc <srl>:
    6dfc:	00010f13          	mv	t5,sp
    6e00:	fe312e23          	sw	gp,-4(sp)
    6e04:	fe112c23          	sw	ra,-8(sp)
    6e08:	0000b537          	lui	a0,0xb
    6e0c:	48c50513          	addi	a0,a0,1164 # b48c <srl_data>
    6e10:	10000637          	lui	a2,0x10000

00006e14 <.prname_next>:
    6e14:	00050583          	lb	a1,0(a0)
    6e18:	00058863          	beqz	a1,6e28 <.prname_done>
    6e1c:	00b62023          	sw	a1,0(a2) # 10000000 <end+0xfff49c0>
    6e20:	00150513          	addi	a0,a0,1
    6e24:	ff1ff06f          	j	6e14 <.prname_next>

00006e28 <.prname_done>:
    6e28:	02e00593          	li	a1,46
    6e2c:	00b62023          	sw	a1,0(a2)
    6e30:	00b62023          	sw	a1,0(a2)

00006e34 <test_2>:
    6e34:	ffff80b7          	lui	ra,0xffff8
    6e38:	00000113          	li	sp,0
    6e3c:	0020d1b3          	srl	gp,ra,sp
    6e40:	ffff8eb7          	lui	t4,0xffff8
    6e44:	00200e13          	li	t3,2
    6e48:	5bd19463          	bne	gp,t4,73f0 <fail>

00006e4c <test_3>:
    6e4c:	ffff80b7          	lui	ra,0xffff8
    6e50:	00100113          	li	sp,1
    6e54:	0020d1b3          	srl	gp,ra,sp
    6e58:	7fffceb7          	lui	t4,0x7fffc
    6e5c:	00300e13          	li	t3,3
    6e60:	59d19863          	bne	gp,t4,73f0 <fail>

00006e64 <test_4>:
    6e64:	ffff80b7          	lui	ra,0xffff8
    6e68:	00700113          	li	sp,7
    6e6c:	0020d1b3          	srl	gp,ra,sp
    6e70:	02000eb7          	lui	t4,0x2000
    6e74:	f00e8e93          	addi	t4,t4,-256 # 1ffff00 <end+0x1ff48c0>
    6e78:	00400e13          	li	t3,4
    6e7c:	57d19a63          	bne	gp,t4,73f0 <fail>

00006e80 <test_5>:
    6e80:	ffff80b7          	lui	ra,0xffff8
    6e84:	00e00113          	li	sp,14
    6e88:	0020d1b3          	srl	gp,ra,sp
    6e8c:	00040eb7          	lui	t4,0x40
    6e90:	ffee8e93          	addi	t4,t4,-2 # 3fffe <end+0x349be>
    6e94:	00500e13          	li	t3,5
    6e98:	55d19c63          	bne	gp,t4,73f0 <fail>

00006e9c <test_6>:
    6e9c:	ffff80b7          	lui	ra,0xffff8
    6ea0:	00108093          	addi	ra,ra,1 # ffff8001 <end+0xfffec9c1>
    6ea4:	00f00113          	li	sp,15
    6ea8:	0020d1b3          	srl	gp,ra,sp
    6eac:	00020eb7          	lui	t4,0x20
    6eb0:	fffe8e93          	addi	t4,t4,-1 # 1ffff <end+0x149bf>
    6eb4:	00600e13          	li	t3,6
    6eb8:	53d19c63          	bne	gp,t4,73f0 <fail>

00006ebc <test_7>:
    6ebc:	fff00093          	li	ra,-1
    6ec0:	00000113          	li	sp,0
    6ec4:	0020d1b3          	srl	gp,ra,sp
    6ec8:	fff00e93          	li	t4,-1
    6ecc:	00700e13          	li	t3,7
    6ed0:	53d19063          	bne	gp,t4,73f0 <fail>

00006ed4 <test_8>:
    6ed4:	fff00093          	li	ra,-1
    6ed8:	00100113          	li	sp,1
    6edc:	0020d1b3          	srl	gp,ra,sp
    6ee0:	80000eb7          	lui	t4,0x80000
    6ee4:	fffe8e93          	addi	t4,t4,-1 # 7fffffff <end+0x7fff49bf>
    6ee8:	00800e13          	li	t3,8
    6eec:	51d19263          	bne	gp,t4,73f0 <fail>

00006ef0 <test_9>:
    6ef0:	fff00093          	li	ra,-1
    6ef4:	00700113          	li	sp,7
    6ef8:	0020d1b3          	srl	gp,ra,sp
    6efc:	02000eb7          	lui	t4,0x2000
    6f00:	fffe8e93          	addi	t4,t4,-1 # 1ffffff <end+0x1ff49bf>
    6f04:	00900e13          	li	t3,9
    6f08:	4fd19463          	bne	gp,t4,73f0 <fail>

00006f0c <test_10>:
    6f0c:	fff00093          	li	ra,-1
    6f10:	00e00113          	li	sp,14
    6f14:	0020d1b3          	srl	gp,ra,sp
    6f18:	00040eb7          	lui	t4,0x40
    6f1c:	fffe8e93          	addi	t4,t4,-1 # 3ffff <end+0x349bf>
    6f20:	00a00e13          	li	t3,10
    6f24:	4dd19663          	bne	gp,t4,73f0 <fail>

00006f28 <test_11>:
    6f28:	fff00093          	li	ra,-1
    6f2c:	01f00113          	li	sp,31
    6f30:	0020d1b3          	srl	gp,ra,sp
    6f34:	00100e93          	li	t4,1
    6f38:	00b00e13          	li	t3,11
    6f3c:	4bd19a63          	bne	gp,t4,73f0 <fail>

00006f40 <test_12>:
    6f40:	212120b7          	lui	ra,0x21212
    6f44:	12108093          	addi	ra,ra,289 # 21212121 <end+0x21206ae1>
    6f48:	00000113          	li	sp,0
    6f4c:	0020d1b3          	srl	gp,ra,sp
    6f50:	21212eb7          	lui	t4,0x21212
    6f54:	121e8e93          	addi	t4,t4,289 # 21212121 <end+0x21206ae1>
    6f58:	00c00e13          	li	t3,12
    6f5c:	49d19a63          	bne	gp,t4,73f0 <fail>

00006f60 <test_13>:
    6f60:	212120b7          	lui	ra,0x21212
    6f64:	12108093          	addi	ra,ra,289 # 21212121 <end+0x21206ae1>
    6f68:	00100113          	li	sp,1
    6f6c:	0020d1b3          	srl	gp,ra,sp
    6f70:	10909eb7          	lui	t4,0x10909
    6f74:	090e8e93          	addi	t4,t4,144 # 10909090 <end+0x108fda50>
    6f78:	00d00e13          	li	t3,13
    6f7c:	47d19a63          	bne	gp,t4,73f0 <fail>

00006f80 <test_14>:
    6f80:	212120b7          	lui	ra,0x21212
    6f84:	12108093          	addi	ra,ra,289 # 21212121 <end+0x21206ae1>
    6f88:	00700113          	li	sp,7
    6f8c:	0020d1b3          	srl	gp,ra,sp
    6f90:	00424eb7          	lui	t4,0x424
    6f94:	242e8e93          	addi	t4,t4,578 # 424242 <end+0x418c02>
    6f98:	00e00e13          	li	t3,14
    6f9c:	45d19a63          	bne	gp,t4,73f0 <fail>

00006fa0 <test_15>:
    6fa0:	212120b7          	lui	ra,0x21212
    6fa4:	12108093          	addi	ra,ra,289 # 21212121 <end+0x21206ae1>
    6fa8:	00e00113          	li	sp,14
    6fac:	0020d1b3          	srl	gp,ra,sp
    6fb0:	00008eb7          	lui	t4,0x8
    6fb4:	484e8e93          	addi	t4,t4,1156 # 8484 <test_18+0x20>
    6fb8:	00f00e13          	li	t3,15
    6fbc:	43d19a63          	bne	gp,t4,73f0 <fail>

00006fc0 <test_16>:
    6fc0:	212120b7          	lui	ra,0x21212
    6fc4:	12108093          	addi	ra,ra,289 # 21212121 <end+0x21206ae1>
    6fc8:	01f00113          	li	sp,31
    6fcc:	0020d1b3          	srl	gp,ra,sp
    6fd0:	00000e93          	li	t4,0
    6fd4:	01000e13          	li	t3,16
    6fd8:	41d19c63          	bne	gp,t4,73f0 <fail>

00006fdc <test_17>:
    6fdc:	212120b7          	lui	ra,0x21212
    6fe0:	12108093          	addi	ra,ra,289 # 21212121 <end+0x21206ae1>
    6fe4:	fe000113          	li	sp,-32
    6fe8:	0020d1b3          	srl	gp,ra,sp
    6fec:	21212eb7          	lui	t4,0x21212
    6ff0:	121e8e93          	addi	t4,t4,289 # 21212121 <end+0x21206ae1>
    6ff4:	01100e13          	li	t3,17
    6ff8:	3fd19c63          	bne	gp,t4,73f0 <fail>

00006ffc <test_18>:
    6ffc:	212120b7          	lui	ra,0x21212
    7000:	12108093          	addi	ra,ra,289 # 21212121 <end+0x21206ae1>
    7004:	fe100113          	li	sp,-31
    7008:	0020d1b3          	srl	gp,ra,sp
    700c:	10909eb7          	lui	t4,0x10909
    7010:	090e8e93          	addi	t4,t4,144 # 10909090 <end+0x108fda50>
    7014:	01200e13          	li	t3,18
    7018:	3dd19c63          	bne	gp,t4,73f0 <fail>

0000701c <test_19>:
    701c:	212120b7          	lui	ra,0x21212
    7020:	12108093          	addi	ra,ra,289 # 21212121 <end+0x21206ae1>
    7024:	fe700113          	li	sp,-25
    7028:	0020d1b3          	srl	gp,ra,sp
    702c:	00424eb7          	lui	t4,0x424
    7030:	242e8e93          	addi	t4,t4,578 # 424242 <end+0x418c02>
    7034:	01300e13          	li	t3,19
    7038:	3bd19c63          	bne	gp,t4,73f0 <fail>

0000703c <test_20>:
    703c:	212120b7          	lui	ra,0x21212
    7040:	12108093          	addi	ra,ra,289 # 21212121 <end+0x21206ae1>
    7044:	fee00113          	li	sp,-18
    7048:	0020d1b3          	srl	gp,ra,sp
    704c:	00008eb7          	lui	t4,0x8
    7050:	484e8e93          	addi	t4,t4,1156 # 8484 <test_18+0x20>
    7054:	01400e13          	li	t3,20
    7058:	39d19c63          	bne	gp,t4,73f0 <fail>

0000705c <test_21>:
    705c:	212120b7          	lui	ra,0x21212
    7060:	12108093          	addi	ra,ra,289 # 21212121 <end+0x21206ae1>
    7064:	fff00113          	li	sp,-1
    7068:	0020d1b3          	srl	gp,ra,sp
    706c:	00000e93          	li	t4,0
    7070:	01500e13          	li	t3,21
    7074:	37d19e63          	bne	gp,t4,73f0 <fail>

00007078 <test_22>:
    7078:	ffff80b7          	lui	ra,0xffff8
    707c:	00100113          	li	sp,1
    7080:	0020d0b3          	srl	ra,ra,sp
    7084:	7fffceb7          	lui	t4,0x7fffc
    7088:	01600e13          	li	t3,22
    708c:	37d09263          	bne	ra,t4,73f0 <fail>

00007090 <test_23>:
    7090:	ffff80b7          	lui	ra,0xffff8
    7094:	00e00113          	li	sp,14
    7098:	0020d133          	srl	sp,ra,sp
    709c:	00040eb7          	lui	t4,0x40
    70a0:	ffee8e93          	addi	t4,t4,-2 # 3fffe <end+0x349be>
    70a4:	01700e13          	li	t3,23
    70a8:	35d11463          	bne	sp,t4,73f0 <fail>

000070ac <test_24>:
    70ac:	00700093          	li	ra,7
    70b0:	0010d0b3          	srl	ra,ra,ra
    70b4:	00000e93          	li	t4,0
    70b8:	01800e13          	li	t3,24
    70bc:	33d09a63          	bne	ra,t4,73f0 <fail>

000070c0 <test_25>:
    70c0:	00000213          	li	tp,0
    70c4:	ffff80b7          	lui	ra,0xffff8
    70c8:	00100113          	li	sp,1
    70cc:	0020d1b3          	srl	gp,ra,sp
    70d0:	00018313          	mv	t1,gp
    70d4:	00120213          	addi	tp,tp,1 # 1 <__boot_address-0x17f>
    70d8:	00200293          	li	t0,2
    70dc:	fe5214e3          	bne	tp,t0,70c4 <test_25+0x4>
    70e0:	7fffceb7          	lui	t4,0x7fffc
    70e4:	01900e13          	li	t3,25
    70e8:	31d31463          	bne	t1,t4,73f0 <fail>

000070ec <test_26>:
    70ec:	00000213          	li	tp,0
    70f0:	ffff80b7          	lui	ra,0xffff8
    70f4:	00e00113          	li	sp,14
    70f8:	0020d1b3          	srl	gp,ra,sp
    70fc:	00000013          	nop
    7100:	00018313          	mv	t1,gp
    7104:	00120213          	addi	tp,tp,1 # 1 <__boot_address-0x17f>
    7108:	00200293          	li	t0,2
    710c:	fe5212e3          	bne	tp,t0,70f0 <test_26+0x4>
    7110:	00040eb7          	lui	t4,0x40
    7114:	ffee8e93          	addi	t4,t4,-2 # 3fffe <end+0x349be>
    7118:	01a00e13          	li	t3,26
    711c:	2dd31a63          	bne	t1,t4,73f0 <fail>

00007120 <test_27>:
    7120:	00000213          	li	tp,0
    7124:	ffff80b7          	lui	ra,0xffff8
    7128:	00f00113          	li	sp,15
    712c:	0020d1b3          	srl	gp,ra,sp
    7130:	00000013          	nop
    7134:	00000013          	nop
    7138:	00018313          	mv	t1,gp
    713c:	00120213          	addi	tp,tp,1 # 1 <__boot_address-0x17f>
    7140:	00200293          	li	t0,2
    7144:	fe5210e3          	bne	tp,t0,7124 <test_27+0x4>
    7148:	00020eb7          	lui	t4,0x20
    714c:	fffe8e93          	addi	t4,t4,-1 # 1ffff <end+0x149bf>
    7150:	01b00e13          	li	t3,27
    7154:	29d31e63          	bne	t1,t4,73f0 <fail>

00007158 <test_28>:
    7158:	00000213          	li	tp,0
    715c:	ffff80b7          	lui	ra,0xffff8
    7160:	00100113          	li	sp,1
    7164:	0020d1b3          	srl	gp,ra,sp
    7168:	00120213          	addi	tp,tp,1 # 1 <__boot_address-0x17f>
    716c:	00200293          	li	t0,2
    7170:	fe5216e3          	bne	tp,t0,715c <test_28+0x4>
    7174:	7fffceb7          	lui	t4,0x7fffc
    7178:	01c00e13          	li	t3,28
    717c:	27d19a63          	bne	gp,t4,73f0 <fail>

00007180 <test_29>:
    7180:	00000213          	li	tp,0
    7184:	ffff80b7          	lui	ra,0xffff8
    7188:	00700113          	li	sp,7
    718c:	00000013          	nop
    7190:	0020d1b3          	srl	gp,ra,sp
    7194:	00120213          	addi	tp,tp,1 # 1 <__boot_address-0x17f>
    7198:	00200293          	li	t0,2
    719c:	fe5214e3          	bne	tp,t0,7184 <test_29+0x4>
    71a0:	02000eb7          	lui	t4,0x2000
    71a4:	f00e8e93          	addi	t4,t4,-256 # 1ffff00 <end+0x1ff48c0>
    71a8:	01d00e13          	li	t3,29
    71ac:	25d19263          	bne	gp,t4,73f0 <fail>

000071b0 <test_30>:
    71b0:	00000213          	li	tp,0
    71b4:	ffff80b7          	lui	ra,0xffff8
    71b8:	00f00113          	li	sp,15
    71bc:	00000013          	nop
    71c0:	00000013          	nop
    71c4:	0020d1b3          	srl	gp,ra,sp
    71c8:	00120213          	addi	tp,tp,1 # 1 <__boot_address-0x17f>
    71cc:	00200293          	li	t0,2
    71d0:	fe5212e3          	bne	tp,t0,71b4 <test_30+0x4>
    71d4:	00020eb7          	lui	t4,0x20
    71d8:	fffe8e93          	addi	t4,t4,-1 # 1ffff <end+0x149bf>
    71dc:	01e00e13          	li	t3,30
    71e0:	21d19863          	bne	gp,t4,73f0 <fail>

000071e4 <test_31>:
    71e4:	00000213          	li	tp,0
    71e8:	ffff80b7          	lui	ra,0xffff8
    71ec:	00000013          	nop
    71f0:	00100113          	li	sp,1
    71f4:	0020d1b3          	srl	gp,ra,sp
    71f8:	00120213          	addi	tp,tp,1 # 1 <__boot_address-0x17f>
    71fc:	00200293          	li	t0,2
    7200:	fe5214e3          	bne	tp,t0,71e8 <test_31+0x4>
    7204:	7fffceb7          	lui	t4,0x7fffc
    7208:	01f00e13          	li	t3,31
    720c:	1fd19263          	bne	gp,t4,73f0 <fail>

00007210 <test_32>:
    7210:	00000213          	li	tp,0
    7214:	ffff80b7          	lui	ra,0xffff8
    7218:	00000013          	nop
    721c:	00700113          	li	sp,7
    7220:	00000013          	nop
    7224:	0020d1b3          	srl	gp,ra,sp
    7228:	00120213          	addi	tp,tp,1 # 1 <__boot_address-0x17f>
    722c:	00200293          	li	t0,2
    7230:	fe5212e3          	bne	tp,t0,7214 <test_32+0x4>
    7234:	02000eb7          	lui	t4,0x2000
    7238:	f00e8e93          	addi	t4,t4,-256 # 1ffff00 <end+0x1ff48c0>
    723c:	02000e13          	li	t3,32
    7240:	1bd19863          	bne	gp,t4,73f0 <fail>

00007244 <test_33>:
    7244:	00000213          	li	tp,0
    7248:	ffff80b7          	lui	ra,0xffff8
    724c:	00000013          	nop
    7250:	00000013          	nop
    7254:	00f00113          	li	sp,15
    7258:	0020d1b3          	srl	gp,ra,sp
    725c:	00120213          	addi	tp,tp,1 # 1 <__boot_address-0x17f>
    7260:	00200293          	li	t0,2
    7264:	fe5212e3          	bne	tp,t0,7248 <test_33+0x4>
    7268:	00020eb7          	lui	t4,0x20
    726c:	fffe8e93          	addi	t4,t4,-1 # 1ffff <end+0x149bf>
    7270:	02100e13          	li	t3,33
    7274:	17d19e63          	bne	gp,t4,73f0 <fail>

00007278 <test_34>:
    7278:	00000213          	li	tp,0
    727c:	00100113          	li	sp,1
    7280:	ffff80b7          	lui	ra,0xffff8
    7284:	0020d1b3          	srl	gp,ra,sp
    7288:	00120213          	addi	tp,tp,1 # 1 <__boot_address-0x17f>
    728c:	00200293          	li	t0,2
    7290:	fe5216e3          	bne	tp,t0,727c <test_34+0x4>
    7294:	7fffceb7          	lui	t4,0x7fffc
    7298:	02200e13          	li	t3,34
    729c:	15d19a63          	bne	gp,t4,73f0 <fail>

000072a0 <test_35>:
    72a0:	00000213          	li	tp,0
    72a4:	00700113          	li	sp,7
    72a8:	ffff80b7          	lui	ra,0xffff8
    72ac:	00000013          	nop
    72b0:	0020d1b3          	srl	gp,ra,sp
    72b4:	00120213          	addi	tp,tp,1 # 1 <__boot_address-0x17f>
    72b8:	00200293          	li	t0,2
    72bc:	fe5214e3          	bne	tp,t0,72a4 <test_35+0x4>
    72c0:	02000eb7          	lui	t4,0x2000
    72c4:	f00e8e93          	addi	t4,t4,-256 # 1ffff00 <end+0x1ff48c0>
    72c8:	02300e13          	li	t3,35
    72cc:	13d19263          	bne	gp,t4,73f0 <fail>

000072d0 <test_36>:
    72d0:	00000213          	li	tp,0
    72d4:	00f00113          	li	sp,15
    72d8:	ffff80b7          	lui	ra,0xffff8
    72dc:	00000013          	nop
    72e0:	00000013          	nop
    72e4:	0020d1b3          	srl	gp,ra,sp
    72e8:	00120213          	addi	tp,tp,1 # 1 <__boot_address-0x17f>
    72ec:	00200293          	li	t0,2
    72f0:	fe5212e3          	bne	tp,t0,72d4 <test_36+0x4>
    72f4:	00020eb7          	lui	t4,0x20
    72f8:	fffe8e93          	addi	t4,t4,-1 # 1ffff <end+0x149bf>
    72fc:	02400e13          	li	t3,36
    7300:	0fd19863          	bne	gp,t4,73f0 <fail>

00007304 <test_37>:
    7304:	00000213          	li	tp,0
    7308:	00100113          	li	sp,1
    730c:	00000013          	nop
    7310:	ffff80b7          	lui	ra,0xffff8
    7314:	0020d1b3          	srl	gp,ra,sp
    7318:	00120213          	addi	tp,tp,1 # 1 <__boot_address-0x17f>
    731c:	00200293          	li	t0,2
    7320:	fe5214e3          	bne	tp,t0,7308 <test_37+0x4>
    7324:	7fffceb7          	lui	t4,0x7fffc
    7328:	02500e13          	li	t3,37
    732c:	0dd19263          	bne	gp,t4,73f0 <fail>

00007330 <test_38>:
    7330:	00000213          	li	tp,0
    7334:	00700113          	li	sp,7
    7338:	00000013          	nop
    733c:	ffff80b7          	lui	ra,0xffff8
    7340:	00000013          	nop
    7344:	0020d1b3          	srl	gp,ra,sp
    7348:	00120213          	addi	tp,tp,1 # 1 <__boot_address-0x17f>
    734c:	00200293          	li	t0,2
    7350:	fe5212e3          	bne	tp,t0,7334 <test_38+0x4>
    7354:	02000eb7          	lui	t4,0x2000
    7358:	f00e8e93          	addi	t4,t4,-256 # 1ffff00 <end+0x1ff48c0>
    735c:	02600e13          	li	t3,38
    7360:	09d19863          	bne	gp,t4,73f0 <fail>

00007364 <test_39>:
    7364:	00000213          	li	tp,0
    7368:	00f00113          	li	sp,15
    736c:	00000013          	nop
    7370:	00000013          	nop
    7374:	ffff80b7          	lui	ra,0xffff8
    7378:	0020d1b3          	srl	gp,ra,sp
    737c:	00120213          	addi	tp,tp,1 # 1 <__boot_address-0x17f>
    7380:	00200293          	li	t0,2
    7384:	fe5212e3          	bne	tp,t0,7368 <test_39+0x4>
    7388:	00020eb7          	lui	t4,0x20
    738c:	fffe8e93          	addi	t4,t4,-1 # 1ffff <end+0x149bf>
    7390:	02700e13          	li	t3,39
    7394:	05d19e63          	bne	gp,t4,73f0 <fail>

00007398 <test_40>:
    7398:	00f00093          	li	ra,15
    739c:	00105133          	srl	sp,zero,ra
    73a0:	00000e93          	li	t4,0
    73a4:	02800e13          	li	t3,40
    73a8:	05d11463          	bne	sp,t4,73f0 <fail>

000073ac <test_41>:
    73ac:	02000093          	li	ra,32
    73b0:	0000d133          	srl	sp,ra,zero
    73b4:	02000e93          	li	t4,32
    73b8:	02900e13          	li	t3,41
    73bc:	03d11a63          	bne	sp,t4,73f0 <fail>

000073c0 <test_42>:
    73c0:	000050b3          	srl	ra,zero,zero
    73c4:	00000e93          	li	t4,0
    73c8:	02a00e13          	li	t3,42
    73cc:	03d09263          	bne	ra,t4,73f0 <fail>

000073d0 <test_43>:
    73d0:	40000093          	li	ra,1024
    73d4:	00001137          	lui	sp,0x1
    73d8:	80010113          	addi	sp,sp,-2048 # 800 <test_2+0x14>
    73dc:	0020d033          	srl	zero,ra,sp
    73e0:	00000e93          	li	t4,0
    73e4:	02b00e13          	li	t3,43
    73e8:	01d01463          	bne	zero,t4,73f0 <fail>
    73ec:	03c01a63          	bne	zero,t3,7420 <pass>

000073f0 <fail>:
    73f0:	10000537          	lui	a0,0x10000
    73f4:	04500593          	li	a1,69
    73f8:	05200613          	li	a2,82
    73fc:	04f00693          	li	a3,79
    7400:	00a00713          	li	a4,10
    7404:	00b52023          	sw	a1,0(a0) # 10000000 <end+0xfff49c0>
    7408:	00c52023          	sw	a2,0(a0)
    740c:	00c52023          	sw	a2,0(a0)
    7410:	00d52023          	sw	a3,0(a0)
    7414:	00c52023          	sw	a2,0(a0)
    7418:	00e52023          	sw	a4,0(a0)
    741c:	00100073          	ebreak

00007420 <pass>:
    7420:	10000537          	lui	a0,0x10000
    7424:	04f00593          	li	a1,79
    7428:	04b00613          	li	a2,75
    742c:	00a00693          	li	a3,10
    7430:	00b52023          	sw	a1,0(a0) # 10000000 <end+0xfff49c0>
    7434:	00c52023          	sw	a2,0(a0)
    7438:	00d52023          	sw	a3,0(a0)
    743c:	000f0113          	mv	sp,t5
    7440:	ffc12183          	lw	gp,-4(sp)
    7444:	ff812083          	lw	ra,-8(sp)
    7448:	f29f806f          	j	370 <srl_ret>

0000744c <sub>:
    744c:	00010f13          	mv	t5,sp
    7450:	fe312e23          	sw	gp,-4(sp)
    7454:	fe112c23          	sw	ra,-8(sp)
    7458:	0000b537          	lui	a0,0xb
    745c:	4ac50513          	addi	a0,a0,1196 # b4ac <sub_data>
    7460:	10000637          	lui	a2,0x10000

00007464 <.prname_next>:
    7464:	00050583          	lb	a1,0(a0)
    7468:	00058863          	beqz	a1,7478 <.prname_done>
    746c:	00b62023          	sw	a1,0(a2) # 10000000 <end+0xfff49c0>
    7470:	00150513          	addi	a0,a0,1
    7474:	ff1ff06f          	j	7464 <.prname_next>

00007478 <.prname_done>:
    7478:	02e00593          	li	a1,46
    747c:	00b62023          	sw	a1,0(a2)
    7480:	00b62023          	sw	a1,0(a2)

00007484 <test_2>:
    7484:	00000093          	li	ra,0
    7488:	00000113          	li	sp,0
    748c:	402081b3          	sub	gp,ra,sp
    7490:	00000e93          	li	t4,0
    7494:	00200e13          	li	t3,2
    7498:	4bd19663          	bne	gp,t4,7944 <fail>

0000749c <test_3>:
    749c:	00100093          	li	ra,1
    74a0:	00100113          	li	sp,1
    74a4:	402081b3          	sub	gp,ra,sp
    74a8:	00000e93          	li	t4,0
    74ac:	00300e13          	li	t3,3
    74b0:	49d19a63          	bne	gp,t4,7944 <fail>

000074b4 <test_4>:
    74b4:	00300093          	li	ra,3
    74b8:	00700113          	li	sp,7
    74bc:	402081b3          	sub	gp,ra,sp
    74c0:	ffc00e93          	li	t4,-4
    74c4:	00400e13          	li	t3,4
    74c8:	47d19e63          	bne	gp,t4,7944 <fail>

000074cc <test_5>:
    74cc:	00000093          	li	ra,0
    74d0:	ffff8137          	lui	sp,0xffff8
    74d4:	402081b3          	sub	gp,ra,sp
    74d8:	00008eb7          	lui	t4,0x8
    74dc:	00500e13          	li	t3,5
    74e0:	47d19263          	bne	gp,t4,7944 <fail>

000074e4 <test_6>:
    74e4:	800000b7          	lui	ra,0x80000
    74e8:	00000113          	li	sp,0
    74ec:	402081b3          	sub	gp,ra,sp
    74f0:	80000eb7          	lui	t4,0x80000
    74f4:	00600e13          	li	t3,6
    74f8:	45d19663          	bne	gp,t4,7944 <fail>

000074fc <test_7>:
    74fc:	800000b7          	lui	ra,0x80000
    7500:	ffff8137          	lui	sp,0xffff8
    7504:	402081b3          	sub	gp,ra,sp
    7508:	80008eb7          	lui	t4,0x80008
    750c:	00700e13          	li	t3,7
    7510:	43d19a63          	bne	gp,t4,7944 <fail>

00007514 <test_8>:
    7514:	00000093          	li	ra,0
    7518:	00008137          	lui	sp,0x8
    751c:	fff10113          	addi	sp,sp,-1 # 7fff <test_9+0x1f>
    7520:	402081b3          	sub	gp,ra,sp
    7524:	ffff8eb7          	lui	t4,0xffff8
    7528:	001e8e93          	addi	t4,t4,1 # ffff8001 <end+0xfffec9c1>
    752c:	00800e13          	li	t3,8
    7530:	41d19a63          	bne	gp,t4,7944 <fail>

00007534 <test_9>:
    7534:	800000b7          	lui	ra,0x80000
    7538:	fff08093          	addi	ra,ra,-1 # 7fffffff <end+0x7fff49bf>
    753c:	00000113          	li	sp,0
    7540:	402081b3          	sub	gp,ra,sp
    7544:	80000eb7          	lui	t4,0x80000
    7548:	fffe8e93          	addi	t4,t4,-1 # 7fffffff <end+0x7fff49bf>
    754c:	00900e13          	li	t3,9
    7550:	3fd19a63          	bne	gp,t4,7944 <fail>

00007554 <test_10>:
    7554:	800000b7          	lui	ra,0x80000
    7558:	fff08093          	addi	ra,ra,-1 # 7fffffff <end+0x7fff49bf>
    755c:	00008137          	lui	sp,0x8
    7560:	fff10113          	addi	sp,sp,-1 # 7fff <test_9+0x1f>
    7564:	402081b3          	sub	gp,ra,sp
    7568:	7fff8eb7          	lui	t4,0x7fff8
    756c:	00a00e13          	li	t3,10
    7570:	3dd19a63          	bne	gp,t4,7944 <fail>

00007574 <test_11>:
    7574:	800000b7          	lui	ra,0x80000
    7578:	00008137          	lui	sp,0x8
    757c:	fff10113          	addi	sp,sp,-1 # 7fff <test_9+0x1f>
    7580:	402081b3          	sub	gp,ra,sp
    7584:	7fff8eb7          	lui	t4,0x7fff8
    7588:	001e8e93          	addi	t4,t4,1 # 7fff8001 <end+0x7ffec9c1>
    758c:	00b00e13          	li	t3,11
    7590:	3bd19a63          	bne	gp,t4,7944 <fail>

00007594 <test_12>:
    7594:	800000b7          	lui	ra,0x80000
    7598:	fff08093          	addi	ra,ra,-1 # 7fffffff <end+0x7fff49bf>
    759c:	ffff8137          	lui	sp,0xffff8
    75a0:	402081b3          	sub	gp,ra,sp
    75a4:	80008eb7          	lui	t4,0x80008
    75a8:	fffe8e93          	addi	t4,t4,-1 # 80007fff <end+0x7fffc9bf>
    75ac:	00c00e13          	li	t3,12
    75b0:	39d19a63          	bne	gp,t4,7944 <fail>

000075b4 <test_13>:
    75b4:	00000093          	li	ra,0
    75b8:	fff00113          	li	sp,-1
    75bc:	402081b3          	sub	gp,ra,sp
    75c0:	00100e93          	li	t4,1
    75c4:	00d00e13          	li	t3,13
    75c8:	37d19e63          	bne	gp,t4,7944 <fail>

000075cc <test_14>:
    75cc:	fff00093          	li	ra,-1
    75d0:	00100113          	li	sp,1
    75d4:	402081b3          	sub	gp,ra,sp
    75d8:	ffe00e93          	li	t4,-2
    75dc:	00e00e13          	li	t3,14
    75e0:	37d19263          	bne	gp,t4,7944 <fail>

000075e4 <test_15>:
    75e4:	fff00093          	li	ra,-1
    75e8:	fff00113          	li	sp,-1
    75ec:	402081b3          	sub	gp,ra,sp
    75f0:	00000e93          	li	t4,0
    75f4:	00f00e13          	li	t3,15
    75f8:	35d19663          	bne	gp,t4,7944 <fail>

000075fc <test_16>:
    75fc:	00d00093          	li	ra,13
    7600:	00b00113          	li	sp,11
    7604:	402080b3          	sub	ra,ra,sp
    7608:	00200e93          	li	t4,2
    760c:	01000e13          	li	t3,16
    7610:	33d09a63          	bne	ra,t4,7944 <fail>

00007614 <test_17>:
    7614:	00e00093          	li	ra,14
    7618:	00b00113          	li	sp,11
    761c:	40208133          	sub	sp,ra,sp
    7620:	00300e93          	li	t4,3
    7624:	01100e13          	li	t3,17
    7628:	31d11e63          	bne	sp,t4,7944 <fail>

0000762c <test_18>:
    762c:	00d00093          	li	ra,13
    7630:	401080b3          	sub	ra,ra,ra
    7634:	00000e93          	li	t4,0
    7638:	01200e13          	li	t3,18
    763c:	31d09463          	bne	ra,t4,7944 <fail>

00007640 <test_19>:
    7640:	00000213          	li	tp,0
    7644:	00d00093          	li	ra,13
    7648:	00b00113          	li	sp,11
    764c:	402081b3          	sub	gp,ra,sp
    7650:	00018313          	mv	t1,gp
    7654:	00120213          	addi	tp,tp,1 # 1 <__boot_address-0x17f>
    7658:	00200293          	li	t0,2
    765c:	fe5214e3          	bne	tp,t0,7644 <test_19+0x4>
    7660:	00200e93          	li	t4,2
    7664:	01300e13          	li	t3,19
    7668:	2dd31e63          	bne	t1,t4,7944 <fail>

0000766c <test_20>:
    766c:	00000213          	li	tp,0
    7670:	00e00093          	li	ra,14
    7674:	00b00113          	li	sp,11
    7678:	402081b3          	sub	gp,ra,sp
    767c:	00000013          	nop
    7680:	00018313          	mv	t1,gp
    7684:	00120213          	addi	tp,tp,1 # 1 <__boot_address-0x17f>
    7688:	00200293          	li	t0,2
    768c:	fe5212e3          	bne	tp,t0,7670 <test_20+0x4>
    7690:	00300e93          	li	t4,3
    7694:	01400e13          	li	t3,20
    7698:	2bd31663          	bne	t1,t4,7944 <fail>

0000769c <test_21>:
    769c:	00000213          	li	tp,0
    76a0:	00f00093          	li	ra,15
    76a4:	00b00113          	li	sp,11
    76a8:	402081b3          	sub	gp,ra,sp
    76ac:	00000013          	nop
    76b0:	00000013          	nop
    76b4:	00018313          	mv	t1,gp
    76b8:	00120213          	addi	tp,tp,1 # 1 <__boot_address-0x17f>
    76bc:	00200293          	li	t0,2
    76c0:	fe5210e3          	bne	tp,t0,76a0 <test_21+0x4>
    76c4:	00400e93          	li	t4,4
    76c8:	01500e13          	li	t3,21
    76cc:	27d31c63          	bne	t1,t4,7944 <fail>

000076d0 <test_22>:
    76d0:	00000213          	li	tp,0
    76d4:	00d00093          	li	ra,13
    76d8:	00b00113          	li	sp,11
    76dc:	402081b3          	sub	gp,ra,sp
    76e0:	00120213          	addi	tp,tp,1 # 1 <__boot_address-0x17f>
    76e4:	00200293          	li	t0,2
    76e8:	fe5216e3          	bne	tp,t0,76d4 <test_22+0x4>
    76ec:	00200e93          	li	t4,2
    76f0:	01600e13          	li	t3,22
    76f4:	25d19863          	bne	gp,t4,7944 <fail>

000076f8 <test_23>:
    76f8:	00000213          	li	tp,0
    76fc:	00e00093          	li	ra,14
    7700:	00b00113          	li	sp,11
    7704:	00000013          	nop
    7708:	402081b3          	sub	gp,ra,sp
    770c:	00120213          	addi	tp,tp,1 # 1 <__boot_address-0x17f>
    7710:	00200293          	li	t0,2
    7714:	fe5214e3          	bne	tp,t0,76fc <test_23+0x4>
    7718:	00300e93          	li	t4,3
    771c:	01700e13          	li	t3,23
    7720:	23d19263          	bne	gp,t4,7944 <fail>

00007724 <test_24>:
    7724:	00000213          	li	tp,0
    7728:	00f00093          	li	ra,15
    772c:	00b00113          	li	sp,11
    7730:	00000013          	nop
    7734:	00000013          	nop
    7738:	402081b3          	sub	gp,ra,sp
    773c:	00120213          	addi	tp,tp,1 # 1 <__boot_address-0x17f>
    7740:	00200293          	li	t0,2
    7744:	fe5212e3          	bne	tp,t0,7728 <test_24+0x4>
    7748:	00400e93          	li	t4,4
    774c:	01800e13          	li	t3,24
    7750:	1fd19a63          	bne	gp,t4,7944 <fail>

00007754 <test_25>:
    7754:	00000213          	li	tp,0
    7758:	00d00093          	li	ra,13
    775c:	00000013          	nop
    7760:	00b00113          	li	sp,11
    7764:	402081b3          	sub	gp,ra,sp
    7768:	00120213          	addi	tp,tp,1 # 1 <__boot_address-0x17f>
    776c:	00200293          	li	t0,2
    7770:	fe5214e3          	bne	tp,t0,7758 <test_25+0x4>
    7774:	00200e93          	li	t4,2
    7778:	01900e13          	li	t3,25
    777c:	1dd19463          	bne	gp,t4,7944 <fail>

00007780 <test_26>:
    7780:	00000213          	li	tp,0
    7784:	00e00093          	li	ra,14
    7788:	00000013          	nop
    778c:	00b00113          	li	sp,11
    7790:	00000013          	nop
    7794:	402081b3          	sub	gp,ra,sp
    7798:	00120213          	addi	tp,tp,1 # 1 <__boot_address-0x17f>
    779c:	00200293          	li	t0,2
    77a0:	fe5212e3          	bne	tp,t0,7784 <test_26+0x4>
    77a4:	00300e93          	li	t4,3
    77a8:	01a00e13          	li	t3,26
    77ac:	19d19c63          	bne	gp,t4,7944 <fail>

000077b0 <test_27>:
    77b0:	00000213          	li	tp,0
    77b4:	00f00093          	li	ra,15
    77b8:	00000013          	nop
    77bc:	00000013          	nop
    77c0:	00b00113          	li	sp,11
    77c4:	402081b3          	sub	gp,ra,sp
    77c8:	00120213          	addi	tp,tp,1 # 1 <__boot_address-0x17f>
    77cc:	00200293          	li	t0,2
    77d0:	fe5212e3          	bne	tp,t0,77b4 <test_27+0x4>
    77d4:	00400e93          	li	t4,4
    77d8:	01b00e13          	li	t3,27
    77dc:	17d19463          	bne	gp,t4,7944 <fail>

000077e0 <test_28>:
    77e0:	00000213          	li	tp,0
    77e4:	00b00113          	li	sp,11
    77e8:	00d00093          	li	ra,13
    77ec:	402081b3          	sub	gp,ra,sp
    77f0:	00120213          	addi	tp,tp,1 # 1 <__boot_address-0x17f>
    77f4:	00200293          	li	t0,2
    77f8:	fe5216e3          	bne	tp,t0,77e4 <test_28+0x4>
    77fc:	00200e93          	li	t4,2
    7800:	01c00e13          	li	t3,28
    7804:	15d19063          	bne	gp,t4,7944 <fail>

00007808 <test_29>:
    7808:	00000213          	li	tp,0
    780c:	00b00113          	li	sp,11
    7810:	00e00093          	li	ra,14
    7814:	00000013          	nop
    7818:	402081b3          	sub	gp,ra,sp
    781c:	00120213          	addi	tp,tp,1 # 1 <__boot_address-0x17f>
    7820:	00200293          	li	t0,2
    7824:	fe5214e3          	bne	tp,t0,780c <test_29+0x4>
    7828:	00300e93          	li	t4,3
    782c:	01d00e13          	li	t3,29
    7830:	11d19a63          	bne	gp,t4,7944 <fail>

00007834 <test_30>:
    7834:	00000213          	li	tp,0
    7838:	00b00113          	li	sp,11
    783c:	00f00093          	li	ra,15
    7840:	00000013          	nop
    7844:	00000013          	nop
    7848:	402081b3          	sub	gp,ra,sp
    784c:	00120213          	addi	tp,tp,1 # 1 <__boot_address-0x17f>
    7850:	00200293          	li	t0,2
    7854:	fe5212e3          	bne	tp,t0,7838 <test_30+0x4>
    7858:	00400e93          	li	t4,4
    785c:	01e00e13          	li	t3,30
    7860:	0fd19263          	bne	gp,t4,7944 <fail>

00007864 <test_31>:
    7864:	00000213          	li	tp,0
    7868:	00b00113          	li	sp,11
    786c:	00000013          	nop
    7870:	00d00093          	li	ra,13
    7874:	402081b3          	sub	gp,ra,sp
    7878:	00120213          	addi	tp,tp,1 # 1 <__boot_address-0x17f>
    787c:	00200293          	li	t0,2
    7880:	fe5214e3          	bne	tp,t0,7868 <test_31+0x4>
    7884:	00200e93          	li	t4,2
    7888:	01f00e13          	li	t3,31
    788c:	0bd19c63          	bne	gp,t4,7944 <fail>

00007890 <test_32>:
    7890:	00000213          	li	tp,0
    7894:	00b00113          	li	sp,11
    7898:	00000013          	nop
    789c:	00e00093          	li	ra,14
    78a0:	00000013          	nop
    78a4:	402081b3          	sub	gp,ra,sp
    78a8:	00120213          	addi	tp,tp,1 # 1 <__boot_address-0x17f>
    78ac:	00200293          	li	t0,2
    78b0:	fe5212e3          	bne	tp,t0,7894 <test_32+0x4>
    78b4:	00300e93          	li	t4,3
    78b8:	02000e13          	li	t3,32
    78bc:	09d19463          	bne	gp,t4,7944 <fail>

000078c0 <test_33>:
    78c0:	00000213          	li	tp,0
    78c4:	00b00113          	li	sp,11
    78c8:	00000013          	nop
    78cc:	00000013          	nop
    78d0:	00f00093          	li	ra,15
    78d4:	402081b3          	sub	gp,ra,sp
    78d8:	00120213          	addi	tp,tp,1 # 1 <__boot_address-0x17f>
    78dc:	00200293          	li	t0,2
    78e0:	fe5212e3          	bne	tp,t0,78c4 <test_33+0x4>
    78e4:	00400e93          	li	t4,4
    78e8:	02100e13          	li	t3,33
    78ec:	05d19c63          	bne	gp,t4,7944 <fail>

000078f0 <test_34>:
    78f0:	ff100093          	li	ra,-15
    78f4:	40100133          	neg	sp,ra
    78f8:	00f00e93          	li	t4,15
    78fc:	02200e13          	li	t3,34
    7900:	05d11263          	bne	sp,t4,7944 <fail>

00007904 <test_35>:
    7904:	02000093          	li	ra,32
    7908:	40008133          	sub	sp,ra,zero
    790c:	02000e93          	li	t4,32
    7910:	02300e13          	li	t3,35
    7914:	03d11863          	bne	sp,t4,7944 <fail>

00007918 <test_36>:
    7918:	400000b3          	neg	ra,zero
    791c:	00000e93          	li	t4,0
    7920:	02400e13          	li	t3,36
    7924:	03d09063          	bne	ra,t4,7944 <fail>

00007928 <test_37>:
    7928:	01000093          	li	ra,16
    792c:	01e00113          	li	sp,30
    7930:	40208033          	sub	zero,ra,sp
    7934:	00000e93          	li	t4,0
    7938:	02500e13          	li	t3,37
    793c:	01d01463          	bne	zero,t4,7944 <fail>
    7940:	03c01a63          	bne	zero,t3,7974 <pass>

00007944 <fail>:
    7944:	10000537          	lui	a0,0x10000
    7948:	04500593          	li	a1,69
    794c:	05200613          	li	a2,82
    7950:	04f00693          	li	a3,79
    7954:	00a00713          	li	a4,10
    7958:	00b52023          	sw	a1,0(a0) # 10000000 <end+0xfff49c0>
    795c:	00c52023          	sw	a2,0(a0)
    7960:	00c52023          	sw	a2,0(a0)
    7964:	00d52023          	sw	a3,0(a0)
    7968:	00c52023          	sw	a2,0(a0)
    796c:	00e52023          	sw	a4,0(a0)
    7970:	00100073          	ebreak

00007974 <pass>:
    7974:	10000537          	lui	a0,0x10000
    7978:	04f00593          	li	a1,79
    797c:	04b00613          	li	a2,75
    7980:	00a00693          	li	a3,10
    7984:	00b52023          	sw	a1,0(a0) # 10000000 <end+0xfff49c0>
    7988:	00c52023          	sw	a2,0(a0)
    798c:	00d52023          	sw	a3,0(a0)
    7990:	000f0113          	mv	sp,t5
    7994:	ffc12183          	lw	gp,-4(sp) # ffff7ffc <end+0xfffec9bc>
    7998:	ff812083          	lw	ra,-8(sp)
    799c:	9b5f806f          	j	350 <sub_ret>

000079a0 <sw>:
    79a0:	00010f13          	mv	t5,sp
    79a4:	fe312e23          	sw	gp,-4(sp)
    79a8:	fe112c23          	sw	ra,-8(sp)
    79ac:	0000b537          	lui	a0,0xb
    79b0:	4cc50513          	addi	a0,a0,1228 # b4cc <sw_data>
    79b4:	10000637          	lui	a2,0x10000

000079b8 <.prname_next>:
    79b8:	00050583          	lb	a1,0(a0)
    79bc:	00058863          	beqz	a1,79cc <.prname_done>
    79c0:	00b62023          	sw	a1,0(a2) # 10000000 <end+0xfff49c0>
    79c4:	00150513          	addi	a0,a0,1
    79c8:	ff1ff06f          	j	79b8 <.prname_next>

000079cc <.prname_done>:
    79cc:	02e00593          	li	a1,46
    79d0:	00b62023          	sw	a1,0(a2)
    79d4:	00b62023          	sw	a1,0(a2)

000079d8 <test_2>:
    79d8:	00004097          	auipc	ra,0x4
    79dc:	af808093          	addi	ra,ra,-1288 # b4d0 <tdat>
    79e0:	00aa0137          	lui	sp,0xaa0
    79e4:	0aa10113          	addi	sp,sp,170 # aa00aa <end+0xa94a6a>
    79e8:	0020a023          	sw	sp,0(ra)
    79ec:	0000a183          	lw	gp,0(ra)
    79f0:	00aa0eb7          	lui	t4,0xaa0
    79f4:	0aae8e93          	addi	t4,t4,170 # aa00aa <end+0xa94a6a>
    79f8:	00200e13          	li	t3,2
    79fc:	47d19063          	bne	gp,t4,7e5c <fail>

00007a00 <test_3>:
    7a00:	00004097          	auipc	ra,0x4
    7a04:	ad008093          	addi	ra,ra,-1328 # b4d0 <tdat>
    7a08:	aa00b137          	lui	sp,0xaa00b
    7a0c:	a0010113          	addi	sp,sp,-1536 # aa00aa00 <end+0xa9fff3c0>
    7a10:	0020a223          	sw	sp,4(ra)
    7a14:	0040a183          	lw	gp,4(ra)
    7a18:	aa00beb7          	lui	t4,0xaa00b
    7a1c:	a00e8e93          	addi	t4,t4,-1536 # aa00aa00 <end+0xa9fff3c0>
    7a20:	00300e13          	li	t3,3
    7a24:	43d19c63          	bne	gp,t4,7e5c <fail>

00007a28 <test_4>:
    7a28:	00004097          	auipc	ra,0x4
    7a2c:	aa808093          	addi	ra,ra,-1368 # b4d0 <tdat>
    7a30:	0aa01137          	lui	sp,0xaa01
    7a34:	aa010113          	addi	sp,sp,-1376 # aa00aa0 <end+0xa9f5460>
    7a38:	0020a423          	sw	sp,8(ra)
    7a3c:	0080a183          	lw	gp,8(ra)
    7a40:	0aa01eb7          	lui	t4,0xaa01
    7a44:	aa0e8e93          	addi	t4,t4,-1376 # aa00aa0 <end+0xa9f5460>
    7a48:	00400e13          	li	t3,4
    7a4c:	41d19863          	bne	gp,t4,7e5c <fail>

00007a50 <test_5>:
    7a50:	00004097          	auipc	ra,0x4
    7a54:	a8008093          	addi	ra,ra,-1408 # b4d0 <tdat>
    7a58:	a00aa137          	lui	sp,0xa00aa
    7a5c:	00a10113          	addi	sp,sp,10 # a00aa00a <end+0xa009e9ca>
    7a60:	0020a623          	sw	sp,12(ra)
    7a64:	00c0a183          	lw	gp,12(ra)
    7a68:	a00aaeb7          	lui	t4,0xa00aa
    7a6c:	00ae8e93          	addi	t4,t4,10 # a00aa00a <end+0xa009e9ca>
    7a70:	00500e13          	li	t3,5
    7a74:	3fd19463          	bne	gp,t4,7e5c <fail>

00007a78 <test_6>:
    7a78:	00004097          	auipc	ra,0x4
    7a7c:	a7408093          	addi	ra,ra,-1420 # b4ec <tdat8>
    7a80:	00aa0137          	lui	sp,0xaa0
    7a84:	0aa10113          	addi	sp,sp,170 # aa00aa <end+0xa94a6a>
    7a88:	fe20aa23          	sw	sp,-12(ra)
    7a8c:	ff40a183          	lw	gp,-12(ra)
    7a90:	00aa0eb7          	lui	t4,0xaa0
    7a94:	0aae8e93          	addi	t4,t4,170 # aa00aa <end+0xa94a6a>
    7a98:	00600e13          	li	t3,6
    7a9c:	3dd19063          	bne	gp,t4,7e5c <fail>

00007aa0 <test_7>:
    7aa0:	00004097          	auipc	ra,0x4
    7aa4:	a4c08093          	addi	ra,ra,-1460 # b4ec <tdat8>
    7aa8:	aa00b137          	lui	sp,0xaa00b
    7aac:	a0010113          	addi	sp,sp,-1536 # aa00aa00 <end+0xa9fff3c0>
    7ab0:	fe20ac23          	sw	sp,-8(ra)
    7ab4:	ff80a183          	lw	gp,-8(ra)
    7ab8:	aa00beb7          	lui	t4,0xaa00b
    7abc:	a00e8e93          	addi	t4,t4,-1536 # aa00aa00 <end+0xa9fff3c0>
    7ac0:	00700e13          	li	t3,7
    7ac4:	39d19c63          	bne	gp,t4,7e5c <fail>

00007ac8 <test_8>:
    7ac8:	00004097          	auipc	ra,0x4
    7acc:	a2408093          	addi	ra,ra,-1500 # b4ec <tdat8>
    7ad0:	0aa01137          	lui	sp,0xaa01
    7ad4:	aa010113          	addi	sp,sp,-1376 # aa00aa0 <end+0xa9f5460>
    7ad8:	fe20ae23          	sw	sp,-4(ra)
    7adc:	ffc0a183          	lw	gp,-4(ra)
    7ae0:	0aa01eb7          	lui	t4,0xaa01
    7ae4:	aa0e8e93          	addi	t4,t4,-1376 # aa00aa0 <end+0xa9f5460>
    7ae8:	00800e13          	li	t3,8
    7aec:	37d19863          	bne	gp,t4,7e5c <fail>

00007af0 <test_9>:
    7af0:	00004097          	auipc	ra,0x4
    7af4:	9fc08093          	addi	ra,ra,-1540 # b4ec <tdat8>
    7af8:	a00aa137          	lui	sp,0xa00aa
    7afc:	00a10113          	addi	sp,sp,10 # a00aa00a <end+0xa009e9ca>
    7b00:	0020a023          	sw	sp,0(ra)
    7b04:	0000a183          	lw	gp,0(ra)
    7b08:	a00aaeb7          	lui	t4,0xa00aa
    7b0c:	00ae8e93          	addi	t4,t4,10 # a00aa00a <end+0xa009e9ca>
    7b10:	00900e13          	li	t3,9
    7b14:	35d19463          	bne	gp,t4,7e5c <fail>

00007b18 <test_10>:
    7b18:	00004097          	auipc	ra,0x4
    7b1c:	9d808093          	addi	ra,ra,-1576 # b4f0 <tdat9>
    7b20:	12345137          	lui	sp,0x12345
    7b24:	67810113          	addi	sp,sp,1656 # 12345678 <end+0x1233a038>
    7b28:	fe008213          	addi	tp,ra,-32
    7b2c:	02222023          	sw	sp,32(tp) # 20 <__boot_address-0x160>
    7b30:	0000a183          	lw	gp,0(ra)
    7b34:	12345eb7          	lui	t4,0x12345
    7b38:	678e8e93          	addi	t4,t4,1656 # 12345678 <end+0x1233a038>
    7b3c:	00a00e13          	li	t3,10
    7b40:	31d19e63          	bne	gp,t4,7e5c <fail>

00007b44 <test_11>:
    7b44:	00004097          	auipc	ra,0x4
    7b48:	9ac08093          	addi	ra,ra,-1620 # b4f0 <tdat9>
    7b4c:	58213137          	lui	sp,0x58213
    7b50:	09810113          	addi	sp,sp,152 # 58213098 <end+0x58207a58>
    7b54:	ffd08093          	addi	ra,ra,-3
    7b58:	0020a3a3          	sw	sp,7(ra)
    7b5c:	00004217          	auipc	tp,0x4
    7b60:	99820213          	addi	tp,tp,-1640 # b4f4 <tdat10>
    7b64:	00022183          	lw	gp,0(tp) # 0 <__boot_address-0x180>
    7b68:	58213eb7          	lui	t4,0x58213
    7b6c:	098e8e93          	addi	t4,t4,152 # 58213098 <end+0x58207a58>
    7b70:	00b00e13          	li	t3,11
    7b74:	2fd19463          	bne	gp,t4,7e5c <fail>

00007b78 <test_12>:
    7b78:	00c00e13          	li	t3,12
    7b7c:	00000213          	li	tp,0
    7b80:	aabbd0b7          	lui	ra,0xaabbd
    7b84:	cdd08093          	addi	ra,ra,-803 # aabbccdd <end+0xaabb169d>
    7b88:	00004117          	auipc	sp,0x4
    7b8c:	94810113          	addi	sp,sp,-1720 # b4d0 <tdat>
    7b90:	00112023          	sw	ra,0(sp)
    7b94:	00012183          	lw	gp,0(sp)
    7b98:	aabbdeb7          	lui	t4,0xaabbd
    7b9c:	cdde8e93          	addi	t4,t4,-803 # aabbccdd <end+0xaabb169d>
    7ba0:	2bd19e63          	bne	gp,t4,7e5c <fail>
    7ba4:	00120213          	addi	tp,tp,1 # 1 <__boot_address-0x17f>
    7ba8:	00200293          	li	t0,2
    7bac:	fc521ae3          	bne	tp,t0,7b80 <test_12+0x8>

00007bb0 <test_13>:
    7bb0:	00d00e13          	li	t3,13
    7bb4:	00000213          	li	tp,0
    7bb8:	daabc0b7          	lui	ra,0xdaabc
    7bbc:	ccd08093          	addi	ra,ra,-819 # daabbccd <end+0xdaab068d>
    7bc0:	00004117          	auipc	sp,0x4
    7bc4:	91010113          	addi	sp,sp,-1776 # b4d0 <tdat>
    7bc8:	00000013          	nop
    7bcc:	00112223          	sw	ra,4(sp)
    7bd0:	00412183          	lw	gp,4(sp)
    7bd4:	daabceb7          	lui	t4,0xdaabc
    7bd8:	ccde8e93          	addi	t4,t4,-819 # daabbccd <end+0xdaab068d>
    7bdc:	29d19063          	bne	gp,t4,7e5c <fail>
    7be0:	00120213          	addi	tp,tp,1 # 1 <__boot_address-0x17f>
    7be4:	00200293          	li	t0,2
    7be8:	fc5218e3          	bne	tp,t0,7bb8 <test_13+0x8>

00007bec <test_14>:
    7bec:	00e00e13          	li	t3,14
    7bf0:	00000213          	li	tp,0
    7bf4:	ddaac0b7          	lui	ra,0xddaac
    7bf8:	bcc08093          	addi	ra,ra,-1076 # ddaabbcc <end+0xddaa058c>
    7bfc:	00004117          	auipc	sp,0x4
    7c00:	8d410113          	addi	sp,sp,-1836 # b4d0 <tdat>
    7c04:	00000013          	nop
    7c08:	00000013          	nop
    7c0c:	00112423          	sw	ra,8(sp)
    7c10:	00812183          	lw	gp,8(sp)
    7c14:	ddaaceb7          	lui	t4,0xddaac
    7c18:	bcce8e93          	addi	t4,t4,-1076 # ddaabbcc <end+0xddaa058c>
    7c1c:	25d19063          	bne	gp,t4,7e5c <fail>
    7c20:	00120213          	addi	tp,tp,1 # 1 <__boot_address-0x17f>
    7c24:	00200293          	li	t0,2
    7c28:	fc5216e3          	bne	tp,t0,7bf4 <test_14+0x8>

00007c2c <test_15>:
    7c2c:	00f00e13          	li	t3,15
    7c30:	00000213          	li	tp,0
    7c34:	cddab0b7          	lui	ra,0xcddab
    7c38:	bbc08093          	addi	ra,ra,-1092 # cddaabbc <end+0xcdd9f57c>
    7c3c:	00000013          	nop
    7c40:	00004117          	auipc	sp,0x4
    7c44:	89010113          	addi	sp,sp,-1904 # b4d0 <tdat>
    7c48:	00112623          	sw	ra,12(sp)
    7c4c:	00c12183          	lw	gp,12(sp)
    7c50:	cddabeb7          	lui	t4,0xcddab
    7c54:	bbce8e93          	addi	t4,t4,-1092 # cddaabbc <end+0xcdd9f57c>
    7c58:	21d19263          	bne	gp,t4,7e5c <fail>
    7c5c:	00120213          	addi	tp,tp,1 # 1 <__boot_address-0x17f>
    7c60:	00200293          	li	t0,2
    7c64:	fc5218e3          	bne	tp,t0,7c34 <test_15+0x8>

00007c68 <test_16>:
    7c68:	01000e13          	li	t3,16
    7c6c:	00000213          	li	tp,0
    7c70:	ccddb0b7          	lui	ra,0xccddb
    7c74:	abb08093          	addi	ra,ra,-1349 # ccddaabb <end+0xccdcf47b>
    7c78:	00000013          	nop
    7c7c:	00004117          	auipc	sp,0x4
    7c80:	85410113          	addi	sp,sp,-1964 # b4d0 <tdat>
    7c84:	00000013          	nop
    7c88:	00112823          	sw	ra,16(sp)
    7c8c:	01012183          	lw	gp,16(sp)
    7c90:	ccddbeb7          	lui	t4,0xccddb
    7c94:	abbe8e93          	addi	t4,t4,-1349 # ccddaabb <end+0xccdcf47b>
    7c98:	1dd19263          	bne	gp,t4,7e5c <fail>
    7c9c:	00120213          	addi	tp,tp,1 # 1 <__boot_address-0x17f>
    7ca0:	00200293          	li	t0,2
    7ca4:	fc5216e3          	bne	tp,t0,7c70 <test_16+0x8>

00007ca8 <test_17>:
    7ca8:	01100e13          	li	t3,17
    7cac:	00000213          	li	tp,0
    7cb0:	bccde0b7          	lui	ra,0xbccde
    7cb4:	aab08093          	addi	ra,ra,-1365 # bccddaab <end+0xbccd246b>
    7cb8:	00000013          	nop
    7cbc:	00000013          	nop
    7cc0:	00004117          	auipc	sp,0x4
    7cc4:	81010113          	addi	sp,sp,-2032 # b4d0 <tdat>
    7cc8:	00112a23          	sw	ra,20(sp)
    7ccc:	01412183          	lw	gp,20(sp)
    7cd0:	bccdeeb7          	lui	t4,0xbccde
    7cd4:	aabe8e93          	addi	t4,t4,-1365 # bccddaab <end+0xbccd246b>
    7cd8:	19d19263          	bne	gp,t4,7e5c <fail>
    7cdc:	00120213          	addi	tp,tp,1 # 1 <__boot_address-0x17f>
    7ce0:	00200293          	li	t0,2
    7ce4:	fc5216e3          	bne	tp,t0,7cb0 <test_17+0x8>

00007ce8 <test_18>:
    7ce8:	01200e13          	li	t3,18
    7cec:	00000213          	li	tp,0
    7cf0:	00003117          	auipc	sp,0x3
    7cf4:	7e010113          	addi	sp,sp,2016 # b4d0 <tdat>
    7cf8:	001120b7          	lui	ra,0x112
    7cfc:	23308093          	addi	ra,ra,563 # 112233 <end+0x106bf3>
    7d00:	00112023          	sw	ra,0(sp)
    7d04:	00012183          	lw	gp,0(sp)
    7d08:	00112eb7          	lui	t4,0x112
    7d0c:	233e8e93          	addi	t4,t4,563 # 112233 <end+0x106bf3>
    7d10:	15d19663          	bne	gp,t4,7e5c <fail>
    7d14:	00120213          	addi	tp,tp,1 # 1 <__boot_address-0x17f>
    7d18:	00200293          	li	t0,2
    7d1c:	fc521ae3          	bne	tp,t0,7cf0 <test_18+0x8>

00007d20 <test_19>:
    7d20:	01300e13          	li	t3,19
    7d24:	00000213          	li	tp,0
    7d28:	00003117          	auipc	sp,0x3
    7d2c:	7a810113          	addi	sp,sp,1960 # b4d0 <tdat>
    7d30:	300110b7          	lui	ra,0x30011
    7d34:	22308093          	addi	ra,ra,547 # 30011223 <end+0x30005be3>
    7d38:	00000013          	nop
    7d3c:	00112223          	sw	ra,4(sp)
    7d40:	00412183          	lw	gp,4(sp)
    7d44:	30011eb7          	lui	t4,0x30011
    7d48:	223e8e93          	addi	t4,t4,547 # 30011223 <end+0x30005be3>
    7d4c:	11d19863          	bne	gp,t4,7e5c <fail>
    7d50:	00120213          	addi	tp,tp,1 # 1 <__boot_address-0x17f>
    7d54:	00200293          	li	t0,2
    7d58:	fc5218e3          	bne	tp,t0,7d28 <test_19+0x8>

00007d5c <test_20>:
    7d5c:	01400e13          	li	t3,20
    7d60:	00000213          	li	tp,0
    7d64:	00003117          	auipc	sp,0x3
    7d68:	76c10113          	addi	sp,sp,1900 # b4d0 <tdat>
    7d6c:	330010b7          	lui	ra,0x33001
    7d70:	12208093          	addi	ra,ra,290 # 33001122 <end+0x32ff5ae2>
    7d74:	00000013          	nop
    7d78:	00000013          	nop
    7d7c:	00112423          	sw	ra,8(sp)
    7d80:	00812183          	lw	gp,8(sp)
    7d84:	33001eb7          	lui	t4,0x33001
    7d88:	122e8e93          	addi	t4,t4,290 # 33001122 <end+0x32ff5ae2>
    7d8c:	0dd19863          	bne	gp,t4,7e5c <fail>
    7d90:	00120213          	addi	tp,tp,1 # 1 <__boot_address-0x17f>
    7d94:	00200293          	li	t0,2
    7d98:	fc5216e3          	bne	tp,t0,7d64 <test_20+0x8>

00007d9c <test_21>:
    7d9c:	01500e13          	li	t3,21
    7da0:	00000213          	li	tp,0
    7da4:	00003117          	auipc	sp,0x3
    7da8:	72c10113          	addi	sp,sp,1836 # b4d0 <tdat>
    7dac:	00000013          	nop
    7db0:	233000b7          	lui	ra,0x23300
    7db4:	11208093          	addi	ra,ra,274 # 23300112 <end+0x232f4ad2>
    7db8:	00112623          	sw	ra,12(sp)
    7dbc:	00c12183          	lw	gp,12(sp)
    7dc0:	23300eb7          	lui	t4,0x23300
    7dc4:	112e8e93          	addi	t4,t4,274 # 23300112 <end+0x232f4ad2>
    7dc8:	09d19a63          	bne	gp,t4,7e5c <fail>
    7dcc:	00120213          	addi	tp,tp,1 # 1 <__boot_address-0x17f>
    7dd0:	00200293          	li	t0,2
    7dd4:	fc5218e3          	bne	tp,t0,7da4 <test_21+0x8>

00007dd8 <test_22>:
    7dd8:	01600e13          	li	t3,22
    7ddc:	00000213          	li	tp,0
    7de0:	00003117          	auipc	sp,0x3
    7de4:	6f010113          	addi	sp,sp,1776 # b4d0 <tdat>
    7de8:	00000013          	nop
    7dec:	223300b7          	lui	ra,0x22330
    7df0:	01108093          	addi	ra,ra,17 # 22330011 <end+0x223249d1>
    7df4:	00000013          	nop
    7df8:	00112823          	sw	ra,16(sp)
    7dfc:	01012183          	lw	gp,16(sp)
    7e00:	22330eb7          	lui	t4,0x22330
    7e04:	011e8e93          	addi	t4,t4,17 # 22330011 <end+0x223249d1>
    7e08:	05d19a63          	bne	gp,t4,7e5c <fail>
    7e0c:	00120213          	addi	tp,tp,1 # 1 <__boot_address-0x17f>
    7e10:	00200293          	li	t0,2
    7e14:	fc5216e3          	bne	tp,t0,7de0 <test_22+0x8>

00007e18 <test_23>:
    7e18:	01700e13          	li	t3,23
    7e1c:	00000213          	li	tp,0
    7e20:	00003117          	auipc	sp,0x3
    7e24:	6b010113          	addi	sp,sp,1712 # b4d0 <tdat>
    7e28:	00000013          	nop
    7e2c:	00000013          	nop
    7e30:	122330b7          	lui	ra,0x12233
    7e34:	00108093          	addi	ra,ra,1 # 12233001 <end+0x122279c1>
    7e38:	00112a23          	sw	ra,20(sp)
    7e3c:	01412183          	lw	gp,20(sp)
    7e40:	12233eb7          	lui	t4,0x12233
    7e44:	001e8e93          	addi	t4,t4,1 # 12233001 <end+0x122279c1>
    7e48:	01d19a63          	bne	gp,t4,7e5c <fail>
    7e4c:	00120213          	addi	tp,tp,1 # 1 <__boot_address-0x17f>
    7e50:	00200293          	li	t0,2
    7e54:	fc5216e3          	bne	tp,t0,7e20 <test_23+0x8>
    7e58:	03c01a63          	bne	zero,t3,7e8c <pass>

00007e5c <fail>:
    7e5c:	10000537          	lui	a0,0x10000
    7e60:	04500593          	li	a1,69
    7e64:	05200613          	li	a2,82
    7e68:	04f00693          	li	a3,79
    7e6c:	00a00713          	li	a4,10
    7e70:	00b52023          	sw	a1,0(a0) # 10000000 <end+0xfff49c0>
    7e74:	00c52023          	sw	a2,0(a0)
    7e78:	00c52023          	sw	a2,0(a0)
    7e7c:	00d52023          	sw	a3,0(a0)
    7e80:	00c52023          	sw	a2,0(a0)
    7e84:	00e52023          	sw	a4,0(a0)
    7e88:	00100073          	ebreak

00007e8c <pass>:
    7e8c:	10000537          	lui	a0,0x10000
    7e90:	04f00593          	li	a1,79
    7e94:	04b00613          	li	a2,75
    7e98:	00a00693          	li	a3,10
    7e9c:	00b52023          	sw	a1,0(a0) # 10000000 <end+0xfff49c0>
    7ea0:	00c52023          	sw	a2,0(a0)
    7ea4:	00d52023          	sw	a3,0(a0)
    7ea8:	000f0113          	mv	sp,t5
    7eac:	ffc12183          	lw	gp,-4(sp)
    7eb0:	ff812083          	lw	ra,-8(sp)
    7eb4:	c4cf806f          	j	300 <sw_ret>

00007eb8 <xori>:
    7eb8:	00010f13          	mv	t5,sp
    7ebc:	fe312e23          	sw	gp,-4(sp)
    7ec0:	fe112c23          	sw	ra,-8(sp)
    7ec4:	0000b537          	lui	a0,0xb
    7ec8:	51450513          	addi	a0,a0,1300 # b514 <xori_data>
    7ecc:	10000637          	lui	a2,0x10000

00007ed0 <.prname_next>:
    7ed0:	00050583          	lb	a1,0(a0)
    7ed4:	00058863          	beqz	a1,7ee4 <.prname_done>
    7ed8:	00b62023          	sw	a1,0(a2) # 10000000 <end+0xfff49c0>
    7edc:	00150513          	addi	a0,a0,1
    7ee0:	ff1ff06f          	j	7ed0 <.prname_next>

00007ee4 <.prname_done>:
    7ee4:	02e00593          	li	a1,46
    7ee8:	00b62023          	sw	a1,0(a2)
    7eec:	00b62023          	sw	a1,0(a2)

00007ef0 <test_2>:
    7ef0:	00ff10b7          	lui	ra,0xff1
    7ef4:	f0008093          	addi	ra,ra,-256 # ff0f00 <end+0xfe58c0>
    7ef8:	f0f0c193          	xori	gp,ra,-241
    7efc:	ff00feb7          	lui	t4,0xff00f
    7f00:	00fe8e93          	addi	t4,t4,15 # ff00f00f <end+0xff0039cf>
    7f04:	00200e13          	li	t3,2
    7f08:	1dd19663          	bne	gp,t4,80d4 <fail>

00007f0c <test_3>:
    7f0c:	0ff010b7          	lui	ra,0xff01
    7f10:	ff008093          	addi	ra,ra,-16 # ff00ff0 <end+0xfef59b0>
    7f14:	0f00c193          	xori	gp,ra,240
    7f18:	0ff01eb7          	lui	t4,0xff01
    7f1c:	f00e8e93          	addi	t4,t4,-256 # ff00f00 <end+0xfef58c0>
    7f20:	00300e13          	li	t3,3
    7f24:	1bd19863          	bne	gp,t4,80d4 <fail>

00007f28 <test_4>:
    7f28:	00ff10b7          	lui	ra,0xff1
    7f2c:	8ff08093          	addi	ra,ra,-1793 # ff08ff <end+0xfe52bf>
    7f30:	70f0c193          	xori	gp,ra,1807
    7f34:	00ff1eb7          	lui	t4,0xff1
    7f38:	ff0e8e93          	addi	t4,t4,-16 # ff0ff0 <end+0xfe59b0>
    7f3c:	00400e13          	li	t3,4
    7f40:	19d19a63          	bne	gp,t4,80d4 <fail>

00007f44 <test_5>:
    7f44:	f00ff0b7          	lui	ra,0xf00ff
    7f48:	00f08093          	addi	ra,ra,15 # f00ff00f <end+0xf00f39cf>
    7f4c:	0f00c193          	xori	gp,ra,240
    7f50:	f00ffeb7          	lui	t4,0xf00ff
    7f54:	0ffe8e93          	addi	t4,t4,255 # f00ff0ff <end+0xf00f3abf>
    7f58:	00500e13          	li	t3,5
    7f5c:	17d19c63          	bne	gp,t4,80d4 <fail>

00007f60 <test_6>:
    7f60:	ff00f0b7          	lui	ra,0xff00f
    7f64:	70008093          	addi	ra,ra,1792 # ff00f700 <end+0xff0040c0>
    7f68:	70f0c093          	xori	ra,ra,1807
    7f6c:	ff00feb7          	lui	t4,0xff00f
    7f70:	00fe8e93          	addi	t4,t4,15 # ff00f00f <end+0xff0039cf>
    7f74:	00600e13          	li	t3,6
    7f78:	15d09e63          	bne	ra,t4,80d4 <fail>

00007f7c <test_7>:
    7f7c:	00000213          	li	tp,0
    7f80:	0ff010b7          	lui	ra,0xff01
    7f84:	ff008093          	addi	ra,ra,-16 # ff00ff0 <end+0xfef59b0>
    7f88:	0f00c193          	xori	gp,ra,240
    7f8c:	00018313          	mv	t1,gp
    7f90:	00120213          	addi	tp,tp,1 # 1 <__boot_address-0x17f>
    7f94:	00200293          	li	t0,2
    7f98:	fe5214e3          	bne	tp,t0,7f80 <test_7+0x4>
    7f9c:	0ff01eb7          	lui	t4,0xff01
    7fa0:	f00e8e93          	addi	t4,t4,-256 # ff00f00 <end+0xfef58c0>
    7fa4:	00700e13          	li	t3,7
    7fa8:	13d31663          	bne	t1,t4,80d4 <fail>

00007fac <test_8>:
    7fac:	00000213          	li	tp,0
    7fb0:	00ff10b7          	lui	ra,0xff1
    7fb4:	8ff08093          	addi	ra,ra,-1793 # ff08ff <end+0xfe52bf>
    7fb8:	70f0c193          	xori	gp,ra,1807
    7fbc:	00000013          	nop
    7fc0:	00018313          	mv	t1,gp
    7fc4:	00120213          	addi	tp,tp,1 # 1 <__boot_address-0x17f>
    7fc8:	00200293          	li	t0,2
    7fcc:	fe5212e3          	bne	tp,t0,7fb0 <test_8+0x4>
    7fd0:	00ff1eb7          	lui	t4,0xff1
    7fd4:	ff0e8e93          	addi	t4,t4,-16 # ff0ff0 <end+0xfe59b0>
    7fd8:	00800e13          	li	t3,8
    7fdc:	0fd31c63          	bne	t1,t4,80d4 <fail>

00007fe0 <test_9>:
    7fe0:	00000213          	li	tp,0
    7fe4:	f00ff0b7          	lui	ra,0xf00ff
    7fe8:	00f08093          	addi	ra,ra,15 # f00ff00f <end+0xf00f39cf>
    7fec:	0f00c193          	xori	gp,ra,240
    7ff0:	00000013          	nop
    7ff4:	00000013          	nop
    7ff8:	00018313          	mv	t1,gp
    7ffc:	00120213          	addi	tp,tp,1 # 1 <__boot_address-0x17f>
    8000:	00200293          	li	t0,2
    8004:	fe5210e3          	bne	tp,t0,7fe4 <test_9+0x4>
    8008:	f00ffeb7          	lui	t4,0xf00ff
    800c:	0ffe8e93          	addi	t4,t4,255 # f00ff0ff <end+0xf00f3abf>
    8010:	00900e13          	li	t3,9
    8014:	0dd31063          	bne	t1,t4,80d4 <fail>

00008018 <test_10>:
    8018:	00000213          	li	tp,0
    801c:	0ff010b7          	lui	ra,0xff01
    8020:	ff008093          	addi	ra,ra,-16 # ff00ff0 <end+0xfef59b0>
    8024:	0f00c193          	xori	gp,ra,240
    8028:	00120213          	addi	tp,tp,1 # 1 <__boot_address-0x17f>
    802c:	00200293          	li	t0,2
    8030:	fe5216e3          	bne	tp,t0,801c <test_10+0x4>
    8034:	0ff01eb7          	lui	t4,0xff01
    8038:	f00e8e93          	addi	t4,t4,-256 # ff00f00 <end+0xfef58c0>
    803c:	00a00e13          	li	t3,10
    8040:	09d19a63          	bne	gp,t4,80d4 <fail>

00008044 <test_11>:
    8044:	00000213          	li	tp,0
    8048:	00ff10b7          	lui	ra,0xff1
    804c:	fff08093          	addi	ra,ra,-1 # ff0fff <end+0xfe59bf>
    8050:	00000013          	nop
    8054:	00f0c193          	xori	gp,ra,15
    8058:	00120213          	addi	tp,tp,1 # 1 <__boot_address-0x17f>
    805c:	00200293          	li	t0,2
    8060:	fe5214e3          	bne	tp,t0,8048 <test_11+0x4>
    8064:	00ff1eb7          	lui	t4,0xff1
    8068:	ff0e8e93          	addi	t4,t4,-16 # ff0ff0 <end+0xfe59b0>
    806c:	00b00e13          	li	t3,11
    8070:	07d19263          	bne	gp,t4,80d4 <fail>

00008074 <test_12>:
    8074:	00000213          	li	tp,0
    8078:	f00ff0b7          	lui	ra,0xf00ff
    807c:	00f08093          	addi	ra,ra,15 # f00ff00f <end+0xf00f39cf>
    8080:	00000013          	nop
    8084:	00000013          	nop
    8088:	0f00c193          	xori	gp,ra,240
    808c:	00120213          	addi	tp,tp,1 # 1 <__boot_address-0x17f>
    8090:	00200293          	li	t0,2
    8094:	fe5212e3          	bne	tp,t0,8078 <test_12+0x4>
    8098:	f00ffeb7          	lui	t4,0xf00ff
    809c:	0ffe8e93          	addi	t4,t4,255 # f00ff0ff <end+0xf00f3abf>
    80a0:	00c00e13          	li	t3,12
    80a4:	03d19863          	bne	gp,t4,80d4 <fail>

000080a8 <test_13>:
    80a8:	0f004093          	xori	ra,zero,240
    80ac:	0f000e93          	li	t4,240
    80b0:	00d00e13          	li	t3,13
    80b4:	03d09063          	bne	ra,t4,80d4 <fail>

000080b8 <test_14>:
    80b8:	00ff00b7          	lui	ra,0xff0
    80bc:	0ff08093          	addi	ra,ra,255 # ff00ff <end+0xfe4abf>
    80c0:	70f0c013          	xori	zero,ra,1807
    80c4:	00000e93          	li	t4,0
    80c8:	00e00e13          	li	t3,14
    80cc:	01d01463          	bne	zero,t4,80d4 <fail>
    80d0:	03c01a63          	bne	zero,t3,8104 <pass>

000080d4 <fail>:
    80d4:	10000537          	lui	a0,0x10000
    80d8:	04500593          	li	a1,69
    80dc:	05200613          	li	a2,82
    80e0:	04f00693          	li	a3,79
    80e4:	00a00713          	li	a4,10
    80e8:	00b52023          	sw	a1,0(a0) # 10000000 <end+0xfff49c0>
    80ec:	00c52023          	sw	a2,0(a0)
    80f0:	00c52023          	sw	a2,0(a0)
    80f4:	00d52023          	sw	a3,0(a0)
    80f8:	00c52023          	sw	a2,0(a0)
    80fc:	00e52023          	sw	a4,0(a0)
    8100:	00100073          	ebreak

00008104 <pass>:
    8104:	10000537          	lui	a0,0x10000
    8108:	04f00593          	li	a1,79
    810c:	04b00613          	li	a2,75
    8110:	00a00693          	li	a3,10
    8114:	00b52023          	sw	a1,0(a0) # 10000000 <end+0xfff49c0>
    8118:	00c52023          	sw	a2,0(a0)
    811c:	00d52023          	sw	a3,0(a0)
    8120:	000f0113          	mv	sp,t5
    8124:	ffc12183          	lw	gp,-4(sp)
    8128:	ff812083          	lw	ra,-8(sp)
    812c:	9ecf806f          	j	318 <xori_ret>

00008130 <xor>:
    8130:	00010f13          	mv	t5,sp
    8134:	fe312e23          	sw	gp,-4(sp)
    8138:	fe112c23          	sw	ra,-8(sp)
    813c:	0000b537          	lui	a0,0xb
    8140:	53850513          	addi	a0,a0,1336 # b538 <xor_data>
    8144:	10000637          	lui	a2,0x10000

00008148 <.prname_next>:
    8148:	00050583          	lb	a1,0(a0)
    814c:	00058863          	beqz	a1,815c <.prname_done>
    8150:	00b62023          	sw	a1,0(a2) # 10000000 <end+0xfff49c0>
    8154:	00150513          	addi	a0,a0,1
    8158:	ff1ff06f          	j	8148 <.prname_next>

0000815c <.prname_done>:
    815c:	02e00593          	li	a1,46
    8160:	00b62023          	sw	a1,0(a2)
    8164:	00b62023          	sw	a1,0(a2)

00008168 <test_2>:
    8168:	ff0100b7          	lui	ra,0xff010
    816c:	f0008093          	addi	ra,ra,-256 # ff00ff00 <end+0xff0048c0>
    8170:	0f0f1137          	lui	sp,0xf0f1
    8174:	f0f10113          	addi	sp,sp,-241 # f0f0f0f <end+0xf0e58cf>
    8178:	0020c1b3          	xor	gp,ra,sp
    817c:	f00ffeb7          	lui	t4,0xf00ff
    8180:	00fe8e93          	addi	t4,t4,15 # f00ff00f <end+0xf00f39cf>
    8184:	00200e13          	li	t3,2
    8188:	4bd19063          	bne	gp,t4,8628 <fail>

0000818c <test_3>:
    818c:	0ff010b7          	lui	ra,0xff01
    8190:	ff008093          	addi	ra,ra,-16 # ff00ff0 <end+0xfef59b0>
    8194:	f0f0f137          	lui	sp,0xf0f0f
    8198:	0f010113          	addi	sp,sp,240 # f0f0f0f0 <end+0xf0f03ab0>
    819c:	0020c1b3          	xor	gp,ra,sp
    81a0:	ff010eb7          	lui	t4,0xff010
    81a4:	f00e8e93          	addi	t4,t4,-256 # ff00ff00 <end+0xff0048c0>
    81a8:	00300e13          	li	t3,3
    81ac:	47d19e63          	bne	gp,t4,8628 <fail>

000081b0 <test_4>:
    81b0:	00ff00b7          	lui	ra,0xff0
    81b4:	0ff08093          	addi	ra,ra,255 # ff00ff <end+0xfe4abf>
    81b8:	0f0f1137          	lui	sp,0xf0f1
    81bc:	f0f10113          	addi	sp,sp,-241 # f0f0f0f <end+0xf0e58cf>
    81c0:	0020c1b3          	xor	gp,ra,sp
    81c4:	0ff01eb7          	lui	t4,0xff01
    81c8:	ff0e8e93          	addi	t4,t4,-16 # ff00ff0 <end+0xfef59b0>
    81cc:	00400e13          	li	t3,4
    81d0:	45d19c63          	bne	gp,t4,8628 <fail>

000081d4 <test_5>:
    81d4:	f00ff0b7          	lui	ra,0xf00ff
    81d8:	00f08093          	addi	ra,ra,15 # f00ff00f <end+0xf00f39cf>
    81dc:	f0f0f137          	lui	sp,0xf0f0f
    81e0:	0f010113          	addi	sp,sp,240 # f0f0f0f0 <end+0xf0f03ab0>
    81e4:	0020c1b3          	xor	gp,ra,sp
    81e8:	00ff0eb7          	lui	t4,0xff0
    81ec:	0ffe8e93          	addi	t4,t4,255 # ff00ff <end+0xfe4abf>
    81f0:	00500e13          	li	t3,5
    81f4:	43d19a63          	bne	gp,t4,8628 <fail>

000081f8 <test_6>:
    81f8:	ff0100b7          	lui	ra,0xff010
    81fc:	f0008093          	addi	ra,ra,-256 # ff00ff00 <end+0xff0048c0>
    8200:	0f0f1137          	lui	sp,0xf0f1
    8204:	f0f10113          	addi	sp,sp,-241 # f0f0f0f <end+0xf0e58cf>
    8208:	0020c0b3          	xor	ra,ra,sp
    820c:	f00ffeb7          	lui	t4,0xf00ff
    8210:	00fe8e93          	addi	t4,t4,15 # f00ff00f <end+0xf00f39cf>
    8214:	00600e13          	li	t3,6
    8218:	41d09863          	bne	ra,t4,8628 <fail>

0000821c <test_7>:
    821c:	ff0100b7          	lui	ra,0xff010
    8220:	f0008093          	addi	ra,ra,-256 # ff00ff00 <end+0xff0048c0>
    8224:	0f0f1137          	lui	sp,0xf0f1
    8228:	f0f10113          	addi	sp,sp,-241 # f0f0f0f <end+0xf0e58cf>
    822c:	0020c133          	xor	sp,ra,sp
    8230:	f00ffeb7          	lui	t4,0xf00ff
    8234:	00fe8e93          	addi	t4,t4,15 # f00ff00f <end+0xf00f39cf>
    8238:	00700e13          	li	t3,7
    823c:	3fd11663          	bne	sp,t4,8628 <fail>

00008240 <test_8>:
    8240:	ff0100b7          	lui	ra,0xff010
    8244:	f0008093          	addi	ra,ra,-256 # ff00ff00 <end+0xff0048c0>
    8248:	0010c0b3          	xor	ra,ra,ra
    824c:	00000e93          	li	t4,0
    8250:	00800e13          	li	t3,8
    8254:	3dd09a63          	bne	ra,t4,8628 <fail>

00008258 <test_9>:
    8258:	00000213          	li	tp,0
    825c:	ff0100b7          	lui	ra,0xff010
    8260:	f0008093          	addi	ra,ra,-256 # ff00ff00 <end+0xff0048c0>
    8264:	0f0f1137          	lui	sp,0xf0f1
    8268:	f0f10113          	addi	sp,sp,-241 # f0f0f0f <end+0xf0e58cf>
    826c:	0020c1b3          	xor	gp,ra,sp
    8270:	00018313          	mv	t1,gp
    8274:	00120213          	addi	tp,tp,1 # 1 <__boot_address-0x17f>
    8278:	00200293          	li	t0,2
    827c:	fe5210e3          	bne	tp,t0,825c <test_9+0x4>
    8280:	f00ffeb7          	lui	t4,0xf00ff
    8284:	00fe8e93          	addi	t4,t4,15 # f00ff00f <end+0xf00f39cf>
    8288:	00900e13          	li	t3,9
    828c:	39d31e63          	bne	t1,t4,8628 <fail>

00008290 <test_10>:
    8290:	00000213          	li	tp,0
    8294:	0ff010b7          	lui	ra,0xff01
    8298:	ff008093          	addi	ra,ra,-16 # ff00ff0 <end+0xfef59b0>
    829c:	f0f0f137          	lui	sp,0xf0f0f
    82a0:	0f010113          	addi	sp,sp,240 # f0f0f0f0 <end+0xf0f03ab0>
    82a4:	0020c1b3          	xor	gp,ra,sp
    82a8:	00000013          	nop
    82ac:	00018313          	mv	t1,gp
    82b0:	00120213          	addi	tp,tp,1 # 1 <__boot_address-0x17f>
    82b4:	00200293          	li	t0,2
    82b8:	fc521ee3          	bne	tp,t0,8294 <test_10+0x4>
    82bc:	ff010eb7          	lui	t4,0xff010
    82c0:	f00e8e93          	addi	t4,t4,-256 # ff00ff00 <end+0xff0048c0>
    82c4:	00a00e13          	li	t3,10
    82c8:	37d31063          	bne	t1,t4,8628 <fail>

000082cc <test_11>:
    82cc:	00000213          	li	tp,0
    82d0:	00ff00b7          	lui	ra,0xff0
    82d4:	0ff08093          	addi	ra,ra,255 # ff00ff <end+0xfe4abf>
    82d8:	0f0f1137          	lui	sp,0xf0f1
    82dc:	f0f10113          	addi	sp,sp,-241 # f0f0f0f <end+0xf0e58cf>
    82e0:	0020c1b3          	xor	gp,ra,sp
    82e4:	00000013          	nop
    82e8:	00000013          	nop
    82ec:	00018313          	mv	t1,gp
    82f0:	00120213          	addi	tp,tp,1 # 1 <__boot_address-0x17f>
    82f4:	00200293          	li	t0,2
    82f8:	fc521ce3          	bne	tp,t0,82d0 <test_11+0x4>
    82fc:	0ff01eb7          	lui	t4,0xff01
    8300:	ff0e8e93          	addi	t4,t4,-16 # ff00ff0 <end+0xfef59b0>
    8304:	00b00e13          	li	t3,11
    8308:	33d31063          	bne	t1,t4,8628 <fail>

0000830c <test_12>:
    830c:	00000213          	li	tp,0
    8310:	ff0100b7          	lui	ra,0xff010
    8314:	f0008093          	addi	ra,ra,-256 # ff00ff00 <end+0xff0048c0>
    8318:	0f0f1137          	lui	sp,0xf0f1
    831c:	f0f10113          	addi	sp,sp,-241 # f0f0f0f <end+0xf0e58cf>
    8320:	0020c1b3          	xor	gp,ra,sp
    8324:	00120213          	addi	tp,tp,1 # 1 <__boot_address-0x17f>
    8328:	00200293          	li	t0,2
    832c:	fe5212e3          	bne	tp,t0,8310 <test_12+0x4>
    8330:	f00ffeb7          	lui	t4,0xf00ff
    8334:	00fe8e93          	addi	t4,t4,15 # f00ff00f <end+0xf00f39cf>
    8338:	00c00e13          	li	t3,12
    833c:	2fd19663          	bne	gp,t4,8628 <fail>

00008340 <test_13>:
    8340:	00000213          	li	tp,0
    8344:	0ff010b7          	lui	ra,0xff01
    8348:	ff008093          	addi	ra,ra,-16 # ff00ff0 <end+0xfef59b0>
    834c:	f0f0f137          	lui	sp,0xf0f0f
    8350:	0f010113          	addi	sp,sp,240 # f0f0f0f0 <end+0xf0f03ab0>
    8354:	00000013          	nop
    8358:	0020c1b3          	xor	gp,ra,sp
    835c:	00120213          	addi	tp,tp,1 # 1 <__boot_address-0x17f>
    8360:	00200293          	li	t0,2
    8364:	fe5210e3          	bne	tp,t0,8344 <test_13+0x4>
    8368:	ff010eb7          	lui	t4,0xff010
    836c:	f00e8e93          	addi	t4,t4,-256 # ff00ff00 <end+0xff0048c0>
    8370:	00d00e13          	li	t3,13
    8374:	2bd19a63          	bne	gp,t4,8628 <fail>

00008378 <test_14>:
    8378:	00000213          	li	tp,0
    837c:	00ff00b7          	lui	ra,0xff0
    8380:	0ff08093          	addi	ra,ra,255 # ff00ff <end+0xfe4abf>
    8384:	0f0f1137          	lui	sp,0xf0f1
    8388:	f0f10113          	addi	sp,sp,-241 # f0f0f0f <end+0xf0e58cf>
    838c:	00000013          	nop
    8390:	00000013          	nop
    8394:	0020c1b3          	xor	gp,ra,sp
    8398:	00120213          	addi	tp,tp,1 # 1 <__boot_address-0x17f>
    839c:	00200293          	li	t0,2
    83a0:	fc521ee3          	bne	tp,t0,837c <test_14+0x4>
    83a4:	0ff01eb7          	lui	t4,0xff01
    83a8:	ff0e8e93          	addi	t4,t4,-16 # ff00ff0 <end+0xfef59b0>
    83ac:	00e00e13          	li	t3,14
    83b0:	27d19c63          	bne	gp,t4,8628 <fail>

000083b4 <test_15>:
    83b4:	00000213          	li	tp,0
    83b8:	ff0100b7          	lui	ra,0xff010
    83bc:	f0008093          	addi	ra,ra,-256 # ff00ff00 <end+0xff0048c0>
    83c0:	00000013          	nop
    83c4:	0f0f1137          	lui	sp,0xf0f1
    83c8:	f0f10113          	addi	sp,sp,-241 # f0f0f0f <end+0xf0e58cf>
    83cc:	0020c1b3          	xor	gp,ra,sp
    83d0:	00120213          	addi	tp,tp,1 # 1 <__boot_address-0x17f>
    83d4:	00200293          	li	t0,2
    83d8:	fe5210e3          	bne	tp,t0,83b8 <test_15+0x4>
    83dc:	f00ffeb7          	lui	t4,0xf00ff
    83e0:	00fe8e93          	addi	t4,t4,15 # f00ff00f <end+0xf00f39cf>
    83e4:	00f00e13          	li	t3,15
    83e8:	25d19063          	bne	gp,t4,8628 <fail>

000083ec <test_16>:
    83ec:	00000213          	li	tp,0
    83f0:	0ff010b7          	lui	ra,0xff01
    83f4:	ff008093          	addi	ra,ra,-16 # ff00ff0 <end+0xfef59b0>
    83f8:	00000013          	nop
    83fc:	f0f0f137          	lui	sp,0xf0f0f
    8400:	0f010113          	addi	sp,sp,240 # f0f0f0f0 <end+0xf0f03ab0>
    8404:	00000013          	nop
    8408:	0020c1b3          	xor	gp,ra,sp
    840c:	00120213          	addi	tp,tp,1 # 1 <__boot_address-0x17f>
    8410:	00200293          	li	t0,2
    8414:	fc521ee3          	bne	tp,t0,83f0 <test_16+0x4>
    8418:	ff010eb7          	lui	t4,0xff010
    841c:	f00e8e93          	addi	t4,t4,-256 # ff00ff00 <end+0xff0048c0>
    8420:	01000e13          	li	t3,16
    8424:	21d19263          	bne	gp,t4,8628 <fail>

00008428 <test_17>:
    8428:	00000213          	li	tp,0
    842c:	00ff00b7          	lui	ra,0xff0
    8430:	0ff08093          	addi	ra,ra,255 # ff00ff <end+0xfe4abf>
    8434:	00000013          	nop
    8438:	00000013          	nop
    843c:	0f0f1137          	lui	sp,0xf0f1
    8440:	f0f10113          	addi	sp,sp,-241 # f0f0f0f <end+0xf0e58cf>
    8444:	0020c1b3          	xor	gp,ra,sp
    8448:	00120213          	addi	tp,tp,1 # 1 <__boot_address-0x17f>
    844c:	00200293          	li	t0,2
    8450:	fc521ee3          	bne	tp,t0,842c <test_17+0x4>
    8454:	0ff01eb7          	lui	t4,0xff01
    8458:	ff0e8e93          	addi	t4,t4,-16 # ff00ff0 <end+0xfef59b0>
    845c:	01100e13          	li	t3,17
    8460:	1dd19463          	bne	gp,t4,8628 <fail>

00008464 <test_18>:
    8464:	00000213          	li	tp,0
    8468:	0f0f1137          	lui	sp,0xf0f1
    846c:	f0f10113          	addi	sp,sp,-241 # f0f0f0f <end+0xf0e58cf>
    8470:	ff0100b7          	lui	ra,0xff010
    8474:	f0008093          	addi	ra,ra,-256 # ff00ff00 <end+0xff0048c0>
    8478:	0020c1b3          	xor	gp,ra,sp
    847c:	00120213          	addi	tp,tp,1 # 1 <__boot_address-0x17f>
    8480:	00200293          	li	t0,2
    8484:	fe5212e3          	bne	tp,t0,8468 <test_18+0x4>
    8488:	f00ffeb7          	lui	t4,0xf00ff
    848c:	00fe8e93          	addi	t4,t4,15 # f00ff00f <end+0xf00f39cf>
    8490:	01200e13          	li	t3,18
    8494:	19d19a63          	bne	gp,t4,8628 <fail>

00008498 <test_19>:
    8498:	00000213          	li	tp,0
    849c:	f0f0f137          	lui	sp,0xf0f0f
    84a0:	0f010113          	addi	sp,sp,240 # f0f0f0f0 <end+0xf0f03ab0>
    84a4:	0ff010b7          	lui	ra,0xff01
    84a8:	ff008093          	addi	ra,ra,-16 # ff00ff0 <end+0xfef59b0>
    84ac:	00000013          	nop
    84b0:	0020c1b3          	xor	gp,ra,sp
    84b4:	00120213          	addi	tp,tp,1 # 1 <__boot_address-0x17f>
    84b8:	00200293          	li	t0,2
    84bc:	fe5210e3          	bne	tp,t0,849c <test_19+0x4>
    84c0:	ff010eb7          	lui	t4,0xff010
    84c4:	f00e8e93          	addi	t4,t4,-256 # ff00ff00 <end+0xff0048c0>
    84c8:	01300e13          	li	t3,19
    84cc:	15d19e63          	bne	gp,t4,8628 <fail>

000084d0 <test_20>:
    84d0:	00000213          	li	tp,0
    84d4:	0f0f1137          	lui	sp,0xf0f1
    84d8:	f0f10113          	addi	sp,sp,-241 # f0f0f0f <end+0xf0e58cf>
    84dc:	00ff00b7          	lui	ra,0xff0
    84e0:	0ff08093          	addi	ra,ra,255 # ff00ff <end+0xfe4abf>
    84e4:	00000013          	nop
    84e8:	00000013          	nop
    84ec:	0020c1b3          	xor	gp,ra,sp
    84f0:	00120213          	addi	tp,tp,1 # 1 <__boot_address-0x17f>
    84f4:	00200293          	li	t0,2
    84f8:	fc521ee3          	bne	tp,t0,84d4 <test_20+0x4>
    84fc:	0ff01eb7          	lui	t4,0xff01
    8500:	ff0e8e93          	addi	t4,t4,-16 # ff00ff0 <end+0xfef59b0>
    8504:	01400e13          	li	t3,20
    8508:	13d19063          	bne	gp,t4,8628 <fail>

0000850c <test_21>:
    850c:	00000213          	li	tp,0
    8510:	0f0f1137          	lui	sp,0xf0f1
    8514:	f0f10113          	addi	sp,sp,-241 # f0f0f0f <end+0xf0e58cf>
    8518:	00000013          	nop
    851c:	ff0100b7          	lui	ra,0xff010
    8520:	f0008093          	addi	ra,ra,-256 # ff00ff00 <end+0xff0048c0>
    8524:	0020c1b3          	xor	gp,ra,sp
    8528:	00120213          	addi	tp,tp,1 # 1 <__boot_address-0x17f>
    852c:	00200293          	li	t0,2
    8530:	fe5210e3          	bne	tp,t0,8510 <test_21+0x4>
    8534:	f00ffeb7          	lui	t4,0xf00ff
    8538:	00fe8e93          	addi	t4,t4,15 # f00ff00f <end+0xf00f39cf>
    853c:	01500e13          	li	t3,21
    8540:	0fd19463          	bne	gp,t4,8628 <fail>

00008544 <test_22>:
    8544:	00000213          	li	tp,0
    8548:	f0f0f137          	lui	sp,0xf0f0f
    854c:	0f010113          	addi	sp,sp,240 # f0f0f0f0 <end+0xf0f03ab0>
    8550:	00000013          	nop
    8554:	0ff010b7          	lui	ra,0xff01
    8558:	ff008093          	addi	ra,ra,-16 # ff00ff0 <end+0xfef59b0>
    855c:	00000013          	nop
    8560:	0020c1b3          	xor	gp,ra,sp
    8564:	00120213          	addi	tp,tp,1 # 1 <__boot_address-0x17f>
    8568:	00200293          	li	t0,2
    856c:	fc521ee3          	bne	tp,t0,8548 <test_22+0x4>
    8570:	ff010eb7          	lui	t4,0xff010
    8574:	f00e8e93          	addi	t4,t4,-256 # ff00ff00 <end+0xff0048c0>
    8578:	01600e13          	li	t3,22
    857c:	0bd19663          	bne	gp,t4,8628 <fail>

00008580 <test_23>:
    8580:	00000213          	li	tp,0
    8584:	0f0f1137          	lui	sp,0xf0f1
    8588:	f0f10113          	addi	sp,sp,-241 # f0f0f0f <end+0xf0e58cf>
    858c:	00000013          	nop
    8590:	00000013          	nop
    8594:	00ff00b7          	lui	ra,0xff0
    8598:	0ff08093          	addi	ra,ra,255 # ff00ff <end+0xfe4abf>
    859c:	0020c1b3          	xor	gp,ra,sp
    85a0:	00120213          	addi	tp,tp,1 # 1 <__boot_address-0x17f>
    85a4:	00200293          	li	t0,2
    85a8:	fc521ee3          	bne	tp,t0,8584 <test_23+0x4>
    85ac:	0ff01eb7          	lui	t4,0xff01
    85b0:	ff0e8e93          	addi	t4,t4,-16 # ff00ff0 <end+0xfef59b0>
    85b4:	01700e13          	li	t3,23
    85b8:	07d19863          	bne	gp,t4,8628 <fail>

000085bc <test_24>:
    85bc:	ff0100b7          	lui	ra,0xff010
    85c0:	f0008093          	addi	ra,ra,-256 # ff00ff00 <end+0xff0048c0>
    85c4:	00104133          	xor	sp,zero,ra
    85c8:	ff010eb7          	lui	t4,0xff010
    85cc:	f00e8e93          	addi	t4,t4,-256 # ff00ff00 <end+0xff0048c0>
    85d0:	01800e13          	li	t3,24
    85d4:	05d11a63          	bne	sp,t4,8628 <fail>

000085d8 <test_25>:
    85d8:	00ff00b7          	lui	ra,0xff0
    85dc:	0ff08093          	addi	ra,ra,255 # ff00ff <end+0xfe4abf>
    85e0:	0000c133          	xor	sp,ra,zero
    85e4:	00ff0eb7          	lui	t4,0xff0
    85e8:	0ffe8e93          	addi	t4,t4,255 # ff00ff <end+0xfe4abf>
    85ec:	01900e13          	li	t3,25
    85f0:	03d11c63          	bne	sp,t4,8628 <fail>

000085f4 <test_26>:
    85f4:	000040b3          	xor	ra,zero,zero
    85f8:	00000e93          	li	t4,0
    85fc:	01a00e13          	li	t3,26
    8600:	03d09463          	bne	ra,t4,8628 <fail>

00008604 <test_27>:
    8604:	111110b7          	lui	ra,0x11111
    8608:	11108093          	addi	ra,ra,273 # 11111111 <end+0x11105ad1>
    860c:	22222137          	lui	sp,0x22222
    8610:	22210113          	addi	sp,sp,546 # 22222222 <end+0x22216be2>
    8614:	0020c033          	xor	zero,ra,sp
    8618:	00000e93          	li	t4,0
    861c:	01b00e13          	li	t3,27
    8620:	01d01463          	bne	zero,t4,8628 <fail>
    8624:	03c01a63          	bne	zero,t3,8658 <pass>

00008628 <fail>:
    8628:	10000537          	lui	a0,0x10000
    862c:	04500593          	li	a1,69
    8630:	05200613          	li	a2,82
    8634:	04f00693          	li	a3,79
    8638:	00a00713          	li	a4,10
    863c:	00b52023          	sw	a1,0(a0) # 10000000 <end+0xfff49c0>
    8640:	00c52023          	sw	a2,0(a0)
    8644:	00c52023          	sw	a2,0(a0)
    8648:	00d52023          	sw	a3,0(a0)
    864c:	00c52023          	sw	a2,0(a0)
    8650:	00e52023          	sw	a4,0(a0)
    8654:	00100073          	ebreak

00008658 <pass>:
    8658:	10000537          	lui	a0,0x10000
    865c:	04f00593          	li	a1,79
    8660:	04b00613          	li	a2,75
    8664:	00a00693          	li	a3,10
    8668:	00b52023          	sw	a1,0(a0) # 10000000 <end+0xfff49c0>
    866c:	00c52023          	sw	a2,0(a0)
    8670:	00d52023          	sw	a3,0(a0)
    8674:	000f0113          	mv	sp,t5
    8678:	ffc12183          	lw	gp,-4(sp)
    867c:	ff812083          	lw	ra,-8(sp)
    8680:	ce9f706f          	j	368 <xor_ret>

00008684 <print_chr>:
    8684:	100007b7          	lui	a5,0x10000
    8688:	00a7a023          	sw	a0,0(a5) # 10000000 <end+0xfff49c0>
    868c:	00008067          	ret

00008690 <print_str>:
    8690:	10000737          	lui	a4,0x10000
    8694:	00054783          	lbu	a5,0(a0)
    8698:	00079463          	bnez	a5,86a0 <print_str+0x10>
    869c:	00008067          	ret
    86a0:	00150513          	addi	a0,a0,1
    86a4:	00f72023          	sw	a5,0(a4) # 10000000 <end+0xfff49c0>
    86a8:	fedff06f          	j	8694 <print_str+0x4>

000086ac <print_dec>:
    86ac:	fe010113          	addi	sp,sp,-32
    86b0:	00812c23          	sw	s0,24(sp)
    86b4:	00410413          	addi	s0,sp,4
    86b8:	00912a23          	sw	s1,20(sp)
    86bc:	01212823          	sw	s2,16(sp)
    86c0:	00112e23          	sw	ra,28(sp)
    86c4:	00050493          	mv	s1,a0
    86c8:	00040913          	mv	s2,s0
    86cc:	02049c63          	bnez	s1,8704 <print_dec+0x58>
    86d0:	03240a63          	beq	s0,s2,8704 <print_dec+0x58>
    86d4:	10000737          	lui	a4,0x10000
    86d8:	fff44783          	lbu	a5,-1(s0)
    86dc:	fff40413          	addi	s0,s0,-1
    86e0:	03078793          	addi	a5,a5,48
    86e4:	00f72023          	sw	a5,0(a4) # 10000000 <end+0xfff49c0>
    86e8:	ff2418e3          	bne	s0,s2,86d8 <print_dec+0x2c>
    86ec:	01c12083          	lw	ra,28(sp)
    86f0:	01812403          	lw	s0,24(sp)
    86f4:	01412483          	lw	s1,20(sp)
    86f8:	01012903          	lw	s2,16(sp)
    86fc:	02010113          	addi	sp,sp,32
    8700:	00008067          	ret
    8704:	00a00593          	li	a1,10
    8708:	00048513          	mv	a0,s1
    870c:	268000ef          	jal	ra,8974 <__umodsi3>
    8710:	00a40023          	sb	a0,0(s0)
    8714:	00a00593          	li	a1,10
    8718:	00048513          	mv	a0,s1
    871c:	210000ef          	jal	ra,892c <__udivsi3>
    8720:	00140413          	addi	s0,s0,1
    8724:	00050493          	mv	s1,a0
    8728:	fa5ff06f          	j	86cc <print_dec+0x20>

0000872c <print_hex>:
    872c:	fff58593          	addi	a1,a1,-1
    8730:	0000b737          	lui	a4,0xb
    8734:	00259593          	slli	a1,a1,0x2
    8738:	5dc70713          	addi	a4,a4,1500 # b5dc <main+0x58>
    873c:	100006b7          	lui	a3,0x10000
    8740:	0005d463          	bgez	a1,8748 <print_hex+0x1c>
    8744:	00008067          	ret
    8748:	00b557b3          	srl	a5,a0,a1
    874c:	00f7f793          	andi	a5,a5,15
    8750:	00f707b3          	add	a5,a4,a5
    8754:	0007c783          	lbu	a5,0(a5)
    8758:	ffc58593          	addi	a1,a1,-4
    875c:	00f6a023          	sw	a5,0(a3) # 10000000 <end+0xfff49c0>
    8760:	fe1ff06f          	j	8740 <print_hex+0x14>

00008764 <print>:
    8764:	fd010113          	addi	sp,sp,-48
    8768:	02812423          	sw	s0,40(sp)
    876c:	02912223          	sw	s1,36(sp)
    8770:	03212023          	sw	s2,32(sp)
    8774:	01312e23          	sw	s3,28(sp)
    8778:	01412c23          	sw	s4,24(sp)
    877c:	01512a23          	sw	s5,20(sp)
    8780:	01612823          	sw	s6,16(sp)
    8784:	01712623          	sw	s7,12(sp)
    8788:	01812423          	sw	s8,8(sp)
    878c:	02112623          	sw	ra,44(sp)
    8790:	01912223          	sw	s9,4(sp)
    8794:	00050413          	mv	s0,a0
    8798:	00058793          	mv	a5,a1
    879c:	00000493          	li	s1,0
    87a0:	02500913          	li	s2,37
    87a4:	100009b7          	lui	s3,0x10000
    87a8:	02d00a13          	li	s4,45
    87ac:	03000a93          	li	s5,48
    87b0:	00900b13          	li	s6,9
    87b4:	07300b93          	li	s7,115
    87b8:	06400c13          	li	s8,100
    87bc:	00044703          	lbu	a4,0(s0)
    87c0:	02071e63          	bnez	a4,87fc <print+0x98>
    87c4:	02c12083          	lw	ra,44(sp)
    87c8:	02812403          	lw	s0,40(sp)
    87cc:	02012903          	lw	s2,32(sp)
    87d0:	01c12983          	lw	s3,28(sp)
    87d4:	01812a03          	lw	s4,24(sp)
    87d8:	01412a83          	lw	s5,20(sp)
    87dc:	01012b03          	lw	s6,16(sp)
    87e0:	00c12b83          	lw	s7,12(sp)
    87e4:	00812c03          	lw	s8,8(sp)
    87e8:	00412c83          	lw	s9,4(sp)
    87ec:	00048513          	mv	a0,s1
    87f0:	02412483          	lw	s1,36(sp)
    87f4:	03010113          	addi	sp,sp,48
    87f8:	00008067          	ret
    87fc:	0d271c63          	bne	a4,s2,88d4 <print+0x170>
    8800:	00144683          	lbu	a3,1(s0)
    8804:	fc0680e3          	beqz	a3,87c4 <print+0x60>
    8808:	00140713          	addi	a4,s0,1
    880c:	0d268263          	beq	a3,s2,88d0 <print+0x16c>
    8810:	01469463          	bne	a3,s4,8818 <print+0xb4>
    8814:	00240713          	addi	a4,s0,2
    8818:	00074683          	lbu	a3,0(a4)
    881c:	00070413          	mv	s0,a4
    8820:	00170713          	addi	a4,a4,1
    8824:	ff568ae3          	beq	a3,s5,8818 <print+0xb4>
    8828:	00000593          	li	a1,0
    882c:	00044703          	lbu	a4,0(s0)
    8830:	00140513          	addi	a0,s0,1
    8834:	fd070693          	addi	a3,a4,-48
    8838:	0ff6f613          	andi	a2,a3,255
    883c:	02cb7063          	bleu	a2,s6,885c <print+0xf8>
    8840:	03771a63          	bne	a4,s7,8874 <print+0x110>
    8844:	0007a503          	lw	a0,0(a5)
    8848:	00478c93          	addi	s9,a5,4
    884c:	e45ff0ef          	jal	ra,8690 <print_str>
    8850:	000c8793          	mv	a5,s9
    8854:	00140413          	addi	s0,s0,1
    8858:	f65ff06f          	j	87bc <print+0x58>
    885c:	00259713          	slli	a4,a1,0x2
    8860:	00b705b3          	add	a1,a4,a1
    8864:	00159593          	slli	a1,a1,0x1
    8868:	00b685b3          	add	a1,a3,a1
    886c:	00050413          	mv	s0,a0
    8870:	fbdff06f          	j	882c <print+0xc8>
    8874:	01871c63          	bne	a4,s8,888c <print+0x128>
    8878:	0007a503          	lw	a0,0(a5)
    887c:	00478c93          	addi	s9,a5,4
    8880:	e2dff0ef          	jal	ra,86ac <print_dec>
    8884:	00148493          	addi	s1,s1,1
    8888:	fc9ff06f          	j	8850 <print+0xec>
    888c:	07800693          	li	a3,120
    8890:	00d71a63          	bne	a4,a3,88a4 <print+0x140>
    8894:	0007a503          	lw	a0,0(a5)
    8898:	00478c93          	addi	s9,a5,4
    889c:	e91ff0ef          	jal	ra,872c <print_hex>
    88a0:	fe5ff06f          	j	8884 <print+0x120>
    88a4:	05800693          	li	a3,88
    88a8:	fed706e3          	beq	a4,a3,8894 <print+0x130>
    88ac:	07500693          	li	a3,117
    88b0:	fcd704e3          	beq	a4,a3,8878 <print+0x114>
    88b4:	06300693          	li	a3,99
    88b8:	f8d71ee3          	bne	a4,a3,8854 <print+0xf0>
    88bc:	0007c703          	lbu	a4,0(a5)
    88c0:	00148493          	addi	s1,s1,1
    88c4:	00478793          	addi	a5,a5,4
    88c8:	00e9a023          	sw	a4,0(s3) # 10000000 <end+0xfff49c0>
    88cc:	f89ff06f          	j	8854 <print+0xf0>
    88d0:	00070413          	mv	s0,a4
    88d4:	00044703          	lbu	a4,0(s0)
    88d8:	00148493          	addi	s1,s1,1
    88dc:	00e9a023          	sw	a4,0(s3)
    88e0:	f75ff06f          	j	8854 <print+0xf0>

000088e4 <print_void>:
    88e4:	00008067          	ret

000088e8 <printf>:
    88e8:	fc010113          	addi	sp,sp,-64
    88ec:	02b12223          	sw	a1,36(sp)
    88f0:	02410593          	addi	a1,sp,36
    88f4:	00112e23          	sw	ra,28(sp)
    88f8:	02c12423          	sw	a2,40(sp)
    88fc:	02d12623          	sw	a3,44(sp)
    8900:	02e12823          	sw	a4,48(sp)
    8904:	02f12a23          	sw	a5,52(sp)
    8908:	03012c23          	sw	a6,56(sp)
    890c:	03112e23          	sw	a7,60(sp)
    8910:	00b12623          	sw	a1,12(sp)
    8914:	e51ff0ef          	jal	ra,8764 <print>
    8918:	01c12083          	lw	ra,28(sp)
    891c:	04010113          	addi	sp,sp,64
    8920:	00008067          	ret

00008924 <__divsi3>:
    8924:	06054063          	bltz	a0,8984 <__umodsi3+0x10>
    8928:	0605c663          	bltz	a1,8994 <__umodsi3+0x20>

0000892c <__udivsi3>:
    892c:	00058613          	mv	a2,a1
    8930:	00050593          	mv	a1,a0
    8934:	fff00513          	li	a0,-1
    8938:	02060c63          	beqz	a2,8970 <__udivsi3+0x44>
    893c:	00100693          	li	a3,1
    8940:	00b67a63          	bleu	a1,a2,8954 <__udivsi3+0x28>
    8944:	00c05863          	blez	a2,8954 <__udivsi3+0x28>
    8948:	00161613          	slli	a2,a2,0x1
    894c:	00169693          	slli	a3,a3,0x1
    8950:	feb66ae3          	bltu	a2,a1,8944 <__udivsi3+0x18>
    8954:	00000513          	li	a0,0
    8958:	00c5e663          	bltu	a1,a2,8964 <__udivsi3+0x38>
    895c:	40c585b3          	sub	a1,a1,a2
    8960:	00d56533          	or	a0,a0,a3
    8964:	0016d693          	srli	a3,a3,0x1
    8968:	00165613          	srli	a2,a2,0x1
    896c:	fe0696e3          	bnez	a3,8958 <__udivsi3+0x2c>
    8970:	00008067          	ret

00008974 <__umodsi3>:
    8974:	00008293          	mv	t0,ra
    8978:	fb5ff0ef          	jal	ra,892c <__udivsi3>
    897c:	00058513          	mv	a0,a1
    8980:	00028067          	jr	t0
    8984:	40a00533          	neg	a0,a0
    8988:	0005d863          	bgez	a1,8998 <__umodsi3+0x24>
    898c:	40b005b3          	neg	a1,a1
    8990:	f9dff06f          	j	892c <__udivsi3>
    8994:	40b005b3          	neg	a1,a1
    8998:	00008293          	mv	t0,ra
    899c:	f91ff0ef          	jal	ra,892c <__udivsi3>
    89a0:	40a00533          	neg	a0,a0
    89a4:	00028067          	jr	t0

000089a8 <__modsi3>:
    89a8:	00008293          	mv	t0,ra
    89ac:	0005ca63          	bltz	a1,89c0 <__modsi3+0x18>
    89b0:	00054c63          	bltz	a0,89c8 <__modsi3+0x20>
    89b4:	f79ff0ef          	jal	ra,892c <__udivsi3>
    89b8:	00058513          	mv	a0,a1
    89bc:	00028067          	jr	t0
    89c0:	40b005b3          	neg	a1,a1
    89c4:	fe0558e3          	bgez	a0,89b4 <__modsi3+0xc>
    89c8:	40a00533          	neg	a0,a0
    89cc:	f61ff0ef          	jal	ra,892c <__udivsi3>
    89d0:	40b00533          	neg	a0,a1
    89d4:	00028067          	jr	t0

Disassembly of section .stack:

0000a000 <_sp-0x1000>:
	...

Disassembly of section .data:

0000b000 <addi_data-0x1c>:
    b000:	1941                	addi	s2,s2,-16
    b002:	0000                	unimp
    b004:	7200                	flw	fs0,32(a2)
    b006:	7369                	lui	t1,0xffffa
    b008:	01007663          	bleu	a6,zero,b014 <_sp+0x14>
    b00c:	0000000f          	fence	unknown,unknown
    b010:	7205                	lui	tp,0xfffe1
    b012:	3376                	fld	ft6,376(sp)
    b014:	6932                	flw	fs2,12(sp)
    b016:	7032                	flw	ft0,44(sp)
    b018:	0030                	addi	a2,sp,8
	...

0000b01c <addi_data>:
    b01c:	6461                	lui	s0,0x18
    b01e:	6964                	flw	fs1,84(a0)
    b020:	0000                	unimp
    b022:	0000                	unimp
    b024:	1941                	addi	s2,s2,-16
    b026:	0000                	unimp
    b028:	7200                	flw	fs0,32(a2)
    b02a:	7369                	lui	t1,0xffffa
    b02c:	01007663          	bleu	a6,zero,b038 <addi_data+0x1c>
    b030:	0000000f          	fence	unknown,unknown
    b034:	7205                	lui	tp,0xfffe1
    b036:	3376                	fld	ft6,376(sp)
    b038:	6932                	flw	fs2,12(sp)
    b03a:	7032                	flw	ft0,44(sp)
    b03c:	0030                	addi	a2,sp,8
	...

0000b040 <add_data>:
    b040:	6461                	lui	s0,0x18
    b042:	0064                	addi	s1,sp,12
    b044:	1941                	addi	s2,s2,-16
    b046:	0000                	unimp
    b048:	7200                	flw	fs0,32(a2)
    b04a:	7369                	lui	t1,0xffffa
    b04c:	01007663          	bleu	a6,zero,b058 <add_data+0x18>
    b050:	0000000f          	fence	unknown,unknown
    b054:	7205                	lui	tp,0xfffe1
    b056:	3376                	fld	ft6,376(sp)
    b058:	6932                	flw	fs2,12(sp)
    b05a:	7032                	flw	ft0,44(sp)
    b05c:	0030                	addi	a2,sp,8
	...

0000b060 <andi_data>:
    b060:	6e61                	lui	t3,0x18
    b062:	6964                	flw	fs1,84(a0)
    b064:	0000                	unimp
    b066:	0000                	unimp
    b068:	1941                	addi	s2,s2,-16
    b06a:	0000                	unimp
    b06c:	7200                	flw	fs0,32(a2)
    b06e:	7369                	lui	t1,0xffffa
    b070:	01007663          	bleu	a6,zero,b07c <andi_data+0x1c>
    b074:	0000000f          	fence	unknown,unknown
    b078:	7205                	lui	tp,0xfffe1
    b07a:	3376                	fld	ft6,376(sp)
    b07c:	6932                	flw	fs2,12(sp)
    b07e:	7032                	flw	ft0,44(sp)
    b080:	0030                	addi	a2,sp,8
	...

0000b084 <and_data>:
    b084:	6e61                	lui	t3,0x18
    b086:	0064                	addi	s1,sp,12
    b088:	1941                	addi	s2,s2,-16
    b08a:	0000                	unimp
    b08c:	7200                	flw	fs0,32(a2)
    b08e:	7369                	lui	t1,0xffffa
    b090:	01007663          	bleu	a6,zero,b09c <and_data+0x18>
    b094:	0000000f          	fence	unknown,unknown
    b098:	7205                	lui	tp,0xfffe1
    b09a:	3376                	fld	ft6,376(sp)
    b09c:	6932                	flw	fs2,12(sp)
    b09e:	7032                	flw	ft0,44(sp)
    b0a0:	0030                	addi	a2,sp,8
	...

0000b0a4 <auipc_data>:
    b0a4:	7561                	lui	a0,0xffff8
    b0a6:	7069                	0x7069
    b0a8:	00000063          	beqz	zero,b0a8 <auipc_data+0x4>
    b0ac:	1941                	addi	s2,s2,-16
    b0ae:	0000                	unimp
    b0b0:	7200                	flw	fs0,32(a2)
    b0b2:	7369                	lui	t1,0xffffa
    b0b4:	01007663          	bleu	a6,zero,b0c0 <auipc_data+0x1c>
    b0b8:	0000000f          	fence	unknown,unknown
    b0bc:	7205                	lui	tp,0xfffe1
    b0be:	3376                	fld	ft6,376(sp)
    b0c0:	6932                	flw	fs2,12(sp)
    b0c2:	7032                	flw	ft0,44(sp)
    b0c4:	0030                	addi	a2,sp,8
	...

0000b0c8 <beq_data>:
    b0c8:	6562                	flw	fa0,24(sp)
    b0ca:	0071                	c.addi	zero,28
    b0cc:	1941                	addi	s2,s2,-16
    b0ce:	0000                	unimp
    b0d0:	7200                	flw	fs0,32(a2)
    b0d2:	7369                	lui	t1,0xffffa
    b0d4:	01007663          	bleu	a6,zero,b0e0 <beq_data+0x18>
    b0d8:	0000000f          	fence	unknown,unknown
    b0dc:	7205                	lui	tp,0xfffe1
    b0de:	3376                	fld	ft6,376(sp)
    b0e0:	6932                	flw	fs2,12(sp)
    b0e2:	7032                	flw	ft0,44(sp)
    b0e4:	0030                	addi	a2,sp,8
	...

0000b0e8 <bge_data>:
    b0e8:	6762                	flw	fa4,24(sp)
    b0ea:	0065                	c.addi	zero,25
    b0ec:	1941                	addi	s2,s2,-16
    b0ee:	0000                	unimp
    b0f0:	7200                	flw	fs0,32(a2)
    b0f2:	7369                	lui	t1,0xffffa
    b0f4:	01007663          	bleu	a6,zero,b100 <bge_data+0x18>
    b0f8:	0000000f          	fence	unknown,unknown
    b0fc:	7205                	lui	tp,0xfffe1
    b0fe:	3376                	fld	ft6,376(sp)
    b100:	6932                	flw	fs2,12(sp)
    b102:	7032                	flw	ft0,44(sp)
    b104:	0030                	addi	a2,sp,8
	...

0000b108 <bgeu_data>:
    b108:	6762                	flw	fa4,24(sp)
    b10a:	7565                	lui	a0,0xffff9
    b10c:	0000                	unimp
    b10e:	0000                	unimp
    b110:	1941                	addi	s2,s2,-16
    b112:	0000                	unimp
    b114:	7200                	flw	fs0,32(a2)
    b116:	7369                	lui	t1,0xffffa
    b118:	01007663          	bleu	a6,zero,b124 <bgeu_data+0x1c>
    b11c:	0000000f          	fence	unknown,unknown
    b120:	7205                	lui	tp,0xfffe1
    b122:	3376                	fld	ft6,376(sp)
    b124:	6932                	flw	fs2,12(sp)
    b126:	7032                	flw	ft0,44(sp)
    b128:	0030                	addi	a2,sp,8
	...

0000b12c <blt_data>:
    b12c:	6c62                	flw	fs8,24(sp)
    b12e:	0074                	addi	a3,sp,12
    b130:	1941                	addi	s2,s2,-16
    b132:	0000                	unimp
    b134:	7200                	flw	fs0,32(a2)
    b136:	7369                	lui	t1,0xffffa
    b138:	01007663          	bleu	a6,zero,b144 <blt_data+0x18>
    b13c:	0000000f          	fence	unknown,unknown
    b140:	7205                	lui	tp,0xfffe1
    b142:	3376                	fld	ft6,376(sp)
    b144:	6932                	flw	fs2,12(sp)
    b146:	7032                	flw	ft0,44(sp)
    b148:	0030                	addi	a2,sp,8
	...

0000b14c <bltu_data>:
    b14c:	6c62                	flw	fs8,24(sp)
    b14e:	7574                	flw	fa3,108(a0)
    b150:	0000                	unimp
    b152:	0000                	unimp
    b154:	1941                	addi	s2,s2,-16
    b156:	0000                	unimp
    b158:	7200                	flw	fs0,32(a2)
    b15a:	7369                	lui	t1,0xffffa
    b15c:	01007663          	bleu	a6,zero,b168 <bltu_data+0x1c>
    b160:	0000000f          	fence	unknown,unknown
    b164:	7205                	lui	tp,0xfffe1
    b166:	3376                	fld	ft6,376(sp)
    b168:	6932                	flw	fs2,12(sp)
    b16a:	7032                	flw	ft0,44(sp)
    b16c:	0030                	addi	a2,sp,8
	...

0000b170 <bne_data>:
    b170:	6e62                	flw	ft8,24(sp)
    b172:	0065                	c.addi	zero,25
    b174:	1941                	addi	s2,s2,-16
    b176:	0000                	unimp
    b178:	7200                	flw	fs0,32(a2)
    b17a:	7369                	lui	t1,0xffffa
    b17c:	01007663          	bleu	a6,zero,b188 <bne_data+0x18>
    b180:	0000000f          	fence	unknown,unknown
    b184:	7205                	lui	tp,0xfffe1
    b186:	3376                	fld	ft6,376(sp)
    b188:	6932                	flw	fs2,12(sp)
    b18a:	7032                	flw	ft0,44(sp)
    b18c:	0030                	addi	a2,sp,8
	...

0000b190 <jalr_data>:
    b190:	616a                	flw	ft2,152(sp)
    b192:	726c                	flw	fa1,100(a2)
    b194:	0000                	unimp
    b196:	0000                	unimp
    b198:	1941                	addi	s2,s2,-16
    b19a:	0000                	unimp
    b19c:	7200                	flw	fs0,32(a2)
    b19e:	7369                	lui	t1,0xffffa
    b1a0:	01007663          	bleu	a6,zero,b1ac <jalr_data+0x1c>
    b1a4:	0000000f          	fence	unknown,unknown
    b1a8:	7205                	lui	tp,0xfffe1
    b1aa:	3376                	fld	ft6,376(sp)
    b1ac:	6932                	flw	fs2,12(sp)
    b1ae:	7032                	flw	ft0,44(sp)
    b1b0:	0030                	addi	a2,sp,8
	...

0000b1b4 <jal_data>:
    b1b4:	616a                	flw	ft2,152(sp)
    b1b6:	006c                	addi	a1,sp,12
    b1b8:	1941                	addi	s2,s2,-16
    b1ba:	0000                	unimp
    b1bc:	7200                	flw	fs0,32(a2)
    b1be:	7369                	lui	t1,0xffffa
    b1c0:	01007663          	bleu	a6,zero,b1cc <jal_data+0x18>
    b1c4:	0000000f          	fence	unknown,unknown
    b1c8:	7205                	lui	tp,0xfffe1
    b1ca:	3376                	fld	ft6,376(sp)
    b1cc:	6932                	flw	fs2,12(sp)
    b1ce:	7032                	flw	ft0,44(sp)
    b1d0:	0030                	addi	a2,sp,8
	...

0000b1d4 <j_data>:
    b1d4:	006a                	0x6a
    b1d6:	0000                	unimp
    b1d8:	1941                	addi	s2,s2,-16
    b1da:	0000                	unimp
    b1dc:	7200                	flw	fs0,32(a2)
    b1de:	7369                	lui	t1,0xffffa
    b1e0:	01007663          	bleu	a6,zero,b1ec <j_data+0x18>
    b1e4:	0000000f          	fence	unknown,unknown
    b1e8:	7205                	lui	tp,0xfffe1
    b1ea:	3376                	fld	ft6,376(sp)
    b1ec:	6932                	flw	fs2,12(sp)
    b1ee:	7032                	flw	ft0,44(sp)
    b1f0:	0030                	addi	a2,sp,8
	...

0000b1f4 <lb_data>:
    b1f4:	626c                	flw	fa1,68(a2)
	...

0000b1f8 <tdat>:
    b1f8:	00ff                	0xff

0000b1f9 <tdat2>:
	...

0000b1fa <tdat3>:
    b1fa:	0ff0                	addi	a2,sp,988

0000b1fb <tdat4>:
    b1fb:	0019410f          	0x19410f
    b1ff:	0000                	unimp
    b201:	6972                	flw	fs2,28(sp)
    b203:	00766373          	csrrsi	t1,0x7,12
    b207:	0f01                	addi	t5,t5,0
    b209:	0000                	unimp
    b20b:	0500                	addi	s0,sp,640
    b20d:	7672                	flw	fa2,60(sp)
    b20f:	32693233          	0x32693233
    b213:	3070                	fld	fa2,224(s0)
    b215:	0000                	unimp
	...

0000b218 <lbu_data>:
    b218:	626c                	flw	fa1,68(a2)
    b21a:	0075                	c.addi	zero,29

0000b21c <tdat>:
    b21c:	00ff                	0xff

0000b21d <tdat2>:
	...

0000b21e <tdat3>:
    b21e:	0ff0                	addi	a2,sp,988

0000b21f <tdat4>:
    b21f:	0019410f          	0x19410f
    b223:	0000                	unimp
    b225:	6972                	flw	fs2,28(sp)
    b227:	00766373          	csrrsi	t1,0x7,12
    b22b:	0f01                	addi	t5,t5,0
    b22d:	0000                	unimp
    b22f:	0500                	addi	s0,sp,640
    b231:	7672                	flw	fa2,60(sp)
    b233:	32693233          	0x32693233
    b237:	3070                	fld	fa2,224(s0)
    b239:	0000                	unimp
	...

0000b23c <lh_data>:
    b23c:	686c                	flw	fa1,84(s0)
	...

0000b240 <tdat>:
    b240:	00ff                	0xff

0000b242 <tdat2>:
    b242:	ff00                	fsw	fs0,56(a4)

0000b244 <tdat3>:
    b244:	0ff0                	addi	a2,sp,988

0000b246 <tdat4>:
    b246:	1941f00f          	0x1941f00f
    b24a:	0000                	unimp
    b24c:	7200                	flw	fs0,32(a2)
    b24e:	7369                	lui	t1,0xffffa
    b250:	01007663          	bleu	a6,zero,b25c <tdat4+0x16>
    b254:	0000000f          	fence	unknown,unknown
    b258:	7205                	lui	tp,0xfffe1
    b25a:	3376                	fld	ft6,376(sp)
    b25c:	6932                	flw	fs2,12(sp)
    b25e:	7032                	flw	ft0,44(sp)
    b260:	0030                	addi	a2,sp,8
	...

0000b264 <lhu_data>:
    b264:	686c                	flw	fa1,84(s0)
    b266:	0075                	c.addi	zero,29

0000b268 <tdat>:
    b268:	00ff                	0xff

0000b26a <tdat2>:
    b26a:	ff00                	fsw	fs0,56(a4)

0000b26c <tdat3>:
    b26c:	0ff0                	addi	a2,sp,988

0000b26e <tdat4>:
    b26e:	1941f00f          	0x1941f00f
    b272:	0000                	unimp
    b274:	7200                	flw	fs0,32(a2)
    b276:	7369                	lui	t1,0xffffa
    b278:	01007663          	bleu	a6,zero,b284 <tdat4+0x16>
    b27c:	0000000f          	fence	unknown,unknown
    b280:	7205                	lui	tp,0xfffe1
    b282:	3376                	fld	ft6,376(sp)
    b284:	6932                	flw	fs2,12(sp)
    b286:	7032                	flw	ft0,44(sp)
    b288:	0030                	addi	a2,sp,8
	...

0000b28c <lui_data>:
    b28c:	756c                	flw	fa1,108(a0)
    b28e:	0069                	c.addi	zero,26
    b290:	1941                	addi	s2,s2,-16
    b292:	0000                	unimp
    b294:	7200                	flw	fs0,32(a2)
    b296:	7369                	lui	t1,0xffffa
    b298:	01007663          	bleu	a6,zero,b2a4 <lui_data+0x18>
    b29c:	0000000f          	fence	unknown,unknown
    b2a0:	7205                	lui	tp,0xfffe1
    b2a2:	3376                	fld	ft6,376(sp)
    b2a4:	6932                	flw	fs2,12(sp)
    b2a6:	7032                	flw	ft0,44(sp)
    b2a8:	0030                	addi	a2,sp,8
	...

0000b2ac <lw_data>:
    b2ac:	776c                	flw	fa1,108(a4)
	...

0000b2b0 <tdat>:
    b2b0:	00ff                	0xff
    b2b2:	00ff                	0xff

0000b2b4 <tdat2>:
    b2b4:	ff00                	fsw	fs0,56(a4)
    b2b6:	ff00                	fsw	fs0,56(a4)

0000b2b8 <tdat3>:
    b2b8:	0ff0                	addi	a2,sp,988
    b2ba:	0ff0                	addi	a2,sp,988

0000b2bc <tdat4>:
    b2bc:	f00ff00f          	0xf00ff00f
    b2c0:	1941                	addi	s2,s2,-16
    b2c2:	0000                	unimp
    b2c4:	7200                	flw	fs0,32(a2)
    b2c6:	7369                	lui	t1,0xffffa
    b2c8:	01007663          	bleu	a6,zero,b2d4 <tdat4+0x18>
    b2cc:	0000000f          	fence	unknown,unknown
    b2d0:	7205                	lui	tp,0xfffe1
    b2d2:	3376                	fld	ft6,376(sp)
    b2d4:	6932                	flw	fs2,12(sp)
    b2d6:	7032                	flw	ft0,44(sp)
    b2d8:	0030                	addi	a2,sp,8
	...

0000b2dc <ori_data>:
    b2dc:	0069726f          	jal	tp,a22e2 <end+0x96ca2>
    b2e0:	1941                	addi	s2,s2,-16
    b2e2:	0000                	unimp
    b2e4:	7200                	flw	fs0,32(a2)
    b2e6:	7369                	lui	t1,0xffffa
    b2e8:	01007663          	bleu	a6,zero,b2f4 <ori_data+0x18>
    b2ec:	0000000f          	fence	unknown,unknown
    b2f0:	7205                	lui	tp,0xfffe1
    b2f2:	3376                	fld	ft6,376(sp)
    b2f4:	6932                	flw	fs2,12(sp)
    b2f6:	7032                	flw	ft0,44(sp)
    b2f8:	0030                	addi	a2,sp,8
	...

0000b2fc <or_data>:
    b2fc:	0000726f          	jal	tp,122fc <end+0x6cbc>
    b300:	1941                	addi	s2,s2,-16
    b302:	0000                	unimp
    b304:	7200                	flw	fs0,32(a2)
    b306:	7369                	lui	t1,0xffffa
    b308:	01007663          	bleu	a6,zero,b314 <or_data+0x18>
    b30c:	0000000f          	fence	unknown,unknown
    b310:	7205                	lui	tp,0xfffe1
    b312:	3376                	fld	ft6,376(sp)
    b314:	6932                	flw	fs2,12(sp)
    b316:	7032                	flw	ft0,44(sp)
    b318:	0030                	addi	a2,sp,8
	...

0000b31c <sb_data>:
    b31c:	00006273          	csrrsi	tp,0x0,0

0000b320 <tdat>:
    b320:	efefefef          	jal	t6,9a1e <__modsi3+0x1076>

0000b321 <tdat2>:
    b321:	efefefef          	jal	t6,9a1f <__modsi3+0x1077>

0000b322 <tdat3>:
    b322:	efefefef          	jal	t6,9a20 <__modsi3+0x1078>

0000b323 <tdat4>:
    b323:	efefefef          	jal	t6,9a21 <__modsi3+0x1079>

0000b324 <tdat5>:
    b324:	efefefef          	jal	t6,9a22 <__modsi3+0x107a>

0000b325 <tdat6>:
    b325:	efefefef          	jal	t6,9a23 <__modsi3+0x107b>

0000b326 <tdat7>:
    b326:	efefefef          	jal	t6,9a24 <__modsi3+0x107c>

0000b327 <tdat8>:
    b327:	41efefef          	jal	t6,109745 <end+0xfe105>

0000b328 <tdat9>:
    b328:	1941efef          	jal	t6,294bc <end+0x1de7c>

0000b329 <tdat10>:
    b329:	001941ef          	jal	gp,9fb29 <end+0x944e9>
    b32d:	0000                	unimp
    b32f:	6972                	flw	fs2,28(sp)
    b331:	00766373          	csrrsi	t1,0x7,12
    b335:	0f01                	addi	t5,t5,0
    b337:	0000                	unimp
    b339:	0500                	addi	s0,sp,640
    b33b:	7672                	flw	fa2,60(sp)
    b33d:	32693233          	0x32693233
    b341:	3070                	fld	fa2,224(s0)
	...

0000b344 <sh_data>:
    b344:	00006873          	csrrsi	a6,0x0,0

0000b348 <tdat>:
    b348:	beefbeef          	jal	t4,6736 <test_23+0x12>

0000b34a <tdat2>:
    b34a:	beefbeef          	jal	t4,6738 <test_23+0x14>

0000b34c <tdat3>:
    b34c:	beefbeef          	jal	t4,673a <test_23+0x16>

0000b34e <tdat4>:
    b34e:	beefbeef          	jal	t4,673c <test_24>

0000b350 <tdat5>:
    b350:	beefbeef          	jal	t4,673e <test_24+0x2>

0000b352 <tdat6>:
    b352:	beefbeef          	jal	t4,6740 <test_24+0x4>

0000b354 <tdat7>:
    b354:	beefbeef          	jal	t4,6742 <test_24+0x6>

0000b356 <tdat8>:
    b356:	beefbeef          	jal	t4,6744 <test_24+0x8>

0000b358 <tdat9>:
    b358:	beefbeef          	jal	t4,6746 <test_24+0xa>

0000b35a <tdat10>:
    b35a:	1941beef          	jal	t4,264ee <end+0x1aeae>
    b35e:	0000                	unimp
    b360:	7200                	flw	fs0,32(a2)
    b362:	7369                	lui	t1,0xffffa
    b364:	01007663          	bleu	a6,zero,b370 <tdat10+0x16>
    b368:	0000000f          	fence	unknown,unknown
    b36c:	7205                	lui	tp,0xfffe1
    b36e:	3376                	fld	ft6,376(sp)
    b370:	6932                	flw	fs2,12(sp)
    b372:	7032                	flw	ft0,44(sp)
    b374:	0030                	addi	a2,sp,8
	...

0000b378 <simple_data>:
    b378:	706d6973          	csrrsi	s2,0x706,26
    b37c:	656c                	flw	fa1,76(a0)
    b37e:	0000                	unimp
    b380:	1941                	addi	s2,s2,-16
    b382:	0000                	unimp
    b384:	7200                	flw	fs0,32(a2)
    b386:	7369                	lui	t1,0xffffa
    b388:	01007663          	bleu	a6,zero,b394 <simple_data+0x1c>
    b38c:	0000000f          	fence	unknown,unknown
    b390:	7205                	lui	tp,0xfffe1
    b392:	3376                	fld	ft6,376(sp)
    b394:	6932                	flw	fs2,12(sp)
    b396:	7032                	flw	ft0,44(sp)
    b398:	0030                	addi	a2,sp,8
	...

0000b39c <slli_data>:
    b39c:	696c6c73          	csrrsi	s8,0x696,24
    b3a0:	0000                	unimp
    b3a2:	0000                	unimp
    b3a4:	1941                	addi	s2,s2,-16
    b3a6:	0000                	unimp
    b3a8:	7200                	flw	fs0,32(a2)
    b3aa:	7369                	lui	t1,0xffffa
    b3ac:	01007663          	bleu	a6,zero,b3b8 <slli_data+0x1c>
    b3b0:	0000000f          	fence	unknown,unknown
    b3b4:	7205                	lui	tp,0xfffe1
    b3b6:	3376                	fld	ft6,376(sp)
    b3b8:	6932                	flw	fs2,12(sp)
    b3ba:	7032                	flw	ft0,44(sp)
    b3bc:	0030                	addi	a2,sp,8
	...

0000b3c0 <sll_data>:
    b3c0:	006c6c73          	csrrsi	s8,0x6,24
    b3c4:	1941                	addi	s2,s2,-16
    b3c6:	0000                	unimp
    b3c8:	7200                	flw	fs0,32(a2)
    b3ca:	7369                	lui	t1,0xffffa
    b3cc:	01007663          	bleu	a6,zero,b3d8 <sll_data+0x18>
    b3d0:	0000000f          	fence	unknown,unknown
    b3d4:	7205                	lui	tp,0xfffe1
    b3d6:	3376                	fld	ft6,376(sp)
    b3d8:	6932                	flw	fs2,12(sp)
    b3da:	7032                	flw	ft0,44(sp)
    b3dc:	0030                	addi	a2,sp,8
	...

0000b3e0 <slti_data>:
    b3e0:	69746c73          	csrrsi	s8,0x697,8
    b3e4:	0000                	unimp
    b3e6:	0000                	unimp
    b3e8:	1941                	addi	s2,s2,-16
    b3ea:	0000                	unimp
    b3ec:	7200                	flw	fs0,32(a2)
    b3ee:	7369                	lui	t1,0xffffa
    b3f0:	01007663          	bleu	a6,zero,b3fc <slti_data+0x1c>
    b3f4:	0000000f          	fence	unknown,unknown
    b3f8:	7205                	lui	tp,0xfffe1
    b3fa:	3376                	fld	ft6,376(sp)
    b3fc:	6932                	flw	fs2,12(sp)
    b3fe:	7032                	flw	ft0,44(sp)
    b400:	0030                	addi	a2,sp,8
	...

0000b404 <slt_data>:
    b404:	00746c73          	csrrsi	s8,0x7,8
    b408:	1941                	addi	s2,s2,-16
    b40a:	0000                	unimp
    b40c:	7200                	flw	fs0,32(a2)
    b40e:	7369                	lui	t1,0xffffa
    b410:	01007663          	bleu	a6,zero,b41c <slt_data+0x18>
    b414:	0000000f          	fence	unknown,unknown
    b418:	7205                	lui	tp,0xfffe1
    b41a:	3376                	fld	ft6,376(sp)
    b41c:	6932                	flw	fs2,12(sp)
    b41e:	7032                	flw	ft0,44(sp)
    b420:	0030                	addi	a2,sp,8
	...

0000b424 <srai_data>:
    b424:	69617273          	csrrci	tp,0x696,2
    b428:	0000                	unimp
    b42a:	0000                	unimp
    b42c:	1941                	addi	s2,s2,-16
    b42e:	0000                	unimp
    b430:	7200                	flw	fs0,32(a2)
    b432:	7369                	lui	t1,0xffffa
    b434:	01007663          	bleu	a6,zero,b440 <srai_data+0x1c>
    b438:	0000000f          	fence	unknown,unknown
    b43c:	7205                	lui	tp,0xfffe1
    b43e:	3376                	fld	ft6,376(sp)
    b440:	6932                	flw	fs2,12(sp)
    b442:	7032                	flw	ft0,44(sp)
    b444:	0030                	addi	a2,sp,8
	...

0000b448 <sra_data>:
    b448:	00617273          	csrrci	tp,0x6,2
    b44c:	1941                	addi	s2,s2,-16
    b44e:	0000                	unimp
    b450:	7200                	flw	fs0,32(a2)
    b452:	7369                	lui	t1,0xffffa
    b454:	01007663          	bleu	a6,zero,b460 <sra_data+0x18>
    b458:	0000000f          	fence	unknown,unknown
    b45c:	7205                	lui	tp,0xfffe1
    b45e:	3376                	fld	ft6,376(sp)
    b460:	6932                	flw	fs2,12(sp)
    b462:	7032                	flw	ft0,44(sp)
    b464:	0030                	addi	a2,sp,8
	...

0000b468 <srli_data>:
    b468:	696c7273          	csrrci	tp,0x696,24
    b46c:	0000                	unimp
    b46e:	0000                	unimp
    b470:	1941                	addi	s2,s2,-16
    b472:	0000                	unimp
    b474:	7200                	flw	fs0,32(a2)
    b476:	7369                	lui	t1,0xffffa
    b478:	01007663          	bleu	a6,zero,b484 <srli_data+0x1c>
    b47c:	0000000f          	fence	unknown,unknown
    b480:	7205                	lui	tp,0xfffe1
    b482:	3376                	fld	ft6,376(sp)
    b484:	6932                	flw	fs2,12(sp)
    b486:	7032                	flw	ft0,44(sp)
    b488:	0030                	addi	a2,sp,8
	...

0000b48c <srl_data>:
    b48c:	006c7273          	csrrci	tp,0x6,24
    b490:	1941                	addi	s2,s2,-16
    b492:	0000                	unimp
    b494:	7200                	flw	fs0,32(a2)
    b496:	7369                	lui	t1,0xffffa
    b498:	01007663          	bleu	a6,zero,b4a4 <srl_data+0x18>
    b49c:	0000000f          	fence	unknown,unknown
    b4a0:	7205                	lui	tp,0xfffe1
    b4a2:	3376                	fld	ft6,376(sp)
    b4a4:	6932                	flw	fs2,12(sp)
    b4a6:	7032                	flw	ft0,44(sp)
    b4a8:	0030                	addi	a2,sp,8
	...

0000b4ac <sub_data>:
    b4ac:	00627573          	csrrci	a0,0x6,4
    b4b0:	1941                	addi	s2,s2,-16
    b4b2:	0000                	unimp
    b4b4:	7200                	flw	fs0,32(a2)
    b4b6:	7369                	lui	t1,0xffffa
    b4b8:	01007663          	bleu	a6,zero,b4c4 <sub_data+0x18>
    b4bc:	0000000f          	fence	unknown,unknown
    b4c0:	7205                	lui	tp,0xfffe1
    b4c2:	3376                	fld	ft6,376(sp)
    b4c4:	6932                	flw	fs2,12(sp)
    b4c6:	7032                	flw	ft0,44(sp)
    b4c8:	0030                	addi	a2,sp,8
	...

0000b4cc <sw_data>:
    b4cc:	00007773          	csrrci	a4,0x0,0

0000b4d0 <tdat>:
    b4d0:	deadbeef          	jal	t4,fffe6aba <end+0xfffdb47a>

0000b4d4 <tdat2>:
    b4d4:	deadbeef          	jal	t4,fffe6abe <end+0xfffdb47e>

0000b4d8 <tdat3>:
    b4d8:	deadbeef          	jal	t4,fffe6ac2 <end+0xfffdb482>

0000b4dc <tdat4>:
    b4dc:	deadbeef          	jal	t4,fffe6ac6 <end+0xfffdb486>

0000b4e0 <tdat5>:
    b4e0:	deadbeef          	jal	t4,fffe6aca <end+0xfffdb48a>

0000b4e4 <tdat6>:
    b4e4:	deadbeef          	jal	t4,fffe6ace <end+0xfffdb48e>

0000b4e8 <tdat7>:
    b4e8:	deadbeef          	jal	t4,fffe6ad2 <end+0xfffdb492>

0000b4ec <tdat8>:
    b4ec:	deadbeef          	jal	t4,fffe6ad6 <end+0xfffdb496>

0000b4f0 <tdat9>:
    b4f0:	deadbeef          	jal	t4,fffe6ada <end+0xfffdb49a>

0000b4f4 <tdat10>:
    b4f4:	deadbeef          	jal	t4,fffe6ade <end+0xfffdb49e>
    b4f8:	1941                	addi	s2,s2,-16
    b4fa:	0000                	unimp
    b4fc:	7200                	flw	fs0,32(a2)
    b4fe:	7369                	lui	t1,0xffffa
    b500:	01007663          	bleu	a6,zero,b50c <tdat10+0x18>
    b504:	0000000f          	fence	unknown,unknown
    b508:	7205                	lui	tp,0xfffe1
    b50a:	3376                	fld	ft6,376(sp)
    b50c:	6932                	flw	fs2,12(sp)
    b50e:	7032                	flw	ft0,44(sp)
    b510:	0030                	addi	a2,sp,8
	...

0000b514 <xori_data>:
    b514:	6f78                	flw	fa4,92(a4)
    b516:	6972                	flw	fs2,28(sp)
    b518:	0000                	unimp
    b51a:	0000                	unimp
    b51c:	1941                	addi	s2,s2,-16
    b51e:	0000                	unimp
    b520:	7200                	flw	fs0,32(a2)
    b522:	7369                	lui	t1,0xffffa
    b524:	01007663          	bleu	a6,zero,b530 <xori_data+0x1c>
    b528:	0000000f          	fence	unknown,unknown
    b52c:	7205                	lui	tp,0xfffe1
    b52e:	3376                	fld	ft6,376(sp)
    b530:	6932                	flw	fs2,12(sp)
    b532:	7032                	flw	ft0,44(sp)
    b534:	0030                	addi	a2,sp,8
	...

0000b538 <xor_data>:
    b538:	6f78                	flw	fa4,92(a4)
    b53a:	0072                	0x72
    b53c:	1941                	addi	s2,s2,-16
    b53e:	0000                	unimp
    b540:	7200                	flw	fs0,32(a2)
    b542:	7369                	lui	t1,0xffffa
    b544:	01007663          	bleu	a6,zero,b550 <xor_data+0x18>
    b548:	0000000f          	fence	unknown,unknown
    b54c:	7205                	lui	tp,0xfffe1
    b54e:	3376                	fld	ft6,376(sp)
    b550:	6932                	flw	fs2,12(sp)
    b552:	7032                	flw	ft0,44(sp)
    b554:	0030                	addi	a2,sp,8
    b556:	0000                	unimp
    b558:	730d                	lui	t1,0xfffe3
    b55a:	7379                	lui	t1,0xffffe
    b55c:	6574                	flw	fa3,76(a0)
    b55e:	206d                	jal	b608 <main+0x84>
    b560:	6f62                	flw	ft10,24(sp)
    b562:	6620746f          	jal	s0,12bc4 <end+0x7584>
    b566:	6e69                	lui	t3,0x1a
    b568:	7369                	lui	t1,0xffffa
    b56a:	6568                	flw	fa0,76(a0)
    b56c:	0d64                	addi	s1,sp,668
    b56e:	000a                	0xa
    b570:	5349                	li	t1,-14
    b572:	2041                	jal	b5f2 <main+0x6e>
    b574:	6574                	flw	fa3,76(a0)
    b576:	69207473          	csrrci	s0,0x692,0
    b57a:	61702073          	csrr	zero,0x617
    b57e:	0d646573          	csrrsi	a0,0xd6,8
    b582:	000a                	0xa

0000b584 <main>:
    b584:	0000b537          	lui	a0,0xb
    b588:	ff010113          	addi	sp,sp,-16
    b58c:	55850513          	addi	a0,a0,1368 # b558 <xor_data+0x20>
    b590:	00112623          	sw	ra,12(sp)
    b594:	8fcfd0ef          	jal	ra,8690 <print_str>
    b598:	cc1f40ef          	jal	ra,258 <__TEST_RV32UI_ISA>
    b59c:	0000b537          	lui	a0,0xb
    b5a0:	57050513          	addi	a0,a0,1392 # b570 <xor_data+0x38>
    b5a4:	8ecfd0ef          	jal	ra,8690 <print_str>
    b5a8:	0000006f          	j	b5a8 <main+0x24>
    b5ac:	3a434347          	fmsub.d	ft6,ft6,ft4,ft7,rmm
    b5b0:	2820                	fld	fs0,80(s0)
    b5b2:	29554e47          	fmsub.s	ft8,fa0,fs5,ft5,rmm
    b5b6:	3920                	fld	fs0,112(a0)
    b5b8:	322e                	fld	ft4,232(sp)
    b5ba:	302e                	fld	ft0,232(sp)
    b5bc:	4100                	lw	s0,0(a0)
    b5be:	0000001b          	0x1b
    b5c2:	6972                	flw	fs2,28(sp)
    b5c4:	00766373          	csrrsi	t1,0x7,12
    b5c8:	1101                	addi	sp,sp,-32
    b5ca:	0000                	unimp
    b5cc:	0400                	addi	s0,sp,512
    b5ce:	0510                	addi	a2,sp,640
    b5d0:	7672                	flw	fa2,60(sp)
    b5d2:	32693233          	0x32693233
    b5d6:	3070                	fld	fa2,224(s0)
    b5d8:	0000                	unimp
    b5da:	0000                	unimp
    b5dc:	3130                	fld	fa2,96(a0)
    b5de:	3332                	fld	ft6,296(sp)
    b5e0:	3534                	fld	fa3,104(a0)
    b5e2:	3736                	fld	fa4,360(sp)
    b5e4:	3938                	fld	fa4,112(a0)
    b5e6:	4241                	li	tp,16
    b5e8:	46454443          	0x46454443
    b5ec:	0000                	unimp
    b5ee:	0000                	unimp
    b5f0:	1b41                	addi	s6,s6,-16
    b5f2:	0000                	unimp
    b5f4:	7200                	flw	fs0,32(a2)
    b5f6:	7369                	lui	t1,0xffffa
    b5f8:	01007663          	bleu	a6,zero,b604 <main+0x80>
    b5fc:	0011                	c.addi	zero,4
    b5fe:	0000                	unimp
    b600:	1004                	addi	s1,sp,32
    b602:	7205                	lui	tp,0xfffe1
    b604:	3376                	fld	ft6,376(sp)
    b606:	6932                	flw	fs2,12(sp)
    b608:	7032                	flw	ft0,44(sp)
    b60a:	0030                	addi	a2,sp,8
    b60c:	1941                	addi	s2,s2,-16
    b60e:	0000                	unimp
    b610:	7200                	flw	fs0,32(a2)
    b612:	7369                	lui	t1,0xffffa
    b614:	01007663          	bleu	a6,zero,b620 <main+0x9c>
    b618:	0000000f          	fence	unknown,unknown
    b61c:	7205                	lui	tp,0xfffe1
    b61e:	3376                	fld	ft6,376(sp)
    b620:	6932                	flw	fs2,12(sp)
    b622:	7032                	flw	ft0,44(sp)
    b624:	0030                	addi	a2,sp,8
    b626:	1941                	addi	s2,s2,-16
    b628:	0000                	unimp
    b62a:	7200                	flw	fs0,32(a2)
    b62c:	7369                	lui	t1,0xffffa
    b62e:	01007663          	bleu	a6,zero,b63a <main+0xb6>
    b632:	0000000f          	fence	unknown,unknown
    b636:	7205                	lui	tp,0xfffe1
    b638:	3376                	fld	ft6,376(sp)
    b63a:	6932                	flw	fs2,12(sp)
    b63c:	7032                	flw	ft0,44(sp)
    b63e:	0030                	addi	a2,sp,8
